(dp0
VPicture 1
p1
(lp2
(lp3
ccopy_reg
_reconstructor
p4
(cpygeodesy.units
Lat
p5
c__builtin__
float
p6
F40.669572555084606
tp7
Rp8
(dp9
V_name
p10
Vlat
p11
sbag4
(cpygeodesy.units
Lon
p12
g6
F-74.47612164115863
tp13
Rp14
(dp15
g10
Vlon
p16
sbaa(lp17
g4
(g5
g6
F40.66957173928571
tp18
Rp19
(dp20
g10
g11
sbag4
(g12
g6
F-74.47612271257165
tp21
Rp22
(dp23
g10
g16
sbaa(lp24
g4
(g5
g6
F40.669570923489
tp25
Rp26
(dp27
g10
g11
sbag4
(g12
g6
F-74.47612164115552
tp28
Rp29
(dp30
g10
g16
sbaa(lp31
g4
(g5
g6
F40.66957010769119
tp32
Rp33
(dp34
g10
g11
sbag4
(g12
g6
F-74.47612164115397
tp35
Rp36
(dp37
g10
g16
sbaa(lp38
g4
(g5
g6
F40.66956929189447
tp39
Rp40
(dp41
g10
g11
sbag4
(g12
g6
F-74.47612056973786
tp42
Rp43
(dp44
g10
g16
sbaa(lp45
g4
(g5
g6
F40.66956847609775
tp46
Rp47
(dp48
g10
g11
sbag4
(g12
g6
F-74.4761194983218
tp49
Rp50
(dp51
g10
g16
sbaa(lp52
g4
(g5
g6
F40.669567660301006
tp53
Rp54
(dp55
g10
g11
sbag4
(g12
g6
F-74.47611842690574
tp56
Rp57
(dp58
g10
g16
sbaa(lp59
g4
(g5
g6
F40.66956766030206
tp60
Rp61
(dp62
g10
g11
sbag4
(g12
g6
F-74.47611735549123
tp63
Rp64
(dp65
g10
g16
sbaa(lp66
g4
(g5
g6
F40.6695676603031
tp67
Rp68
(dp69
g10
g11
sbag4
(g12
g6
F-74.47611628407671
tp70
Rp71
(dp72
g10
g16
sbaa(lp73
g4
(g5
g6
F40.66956684450633
tp74
Rp75
(dp76
g10
g11
sbag4
(g12
g6
F-74.47611521266072
tp77
Rp78
(dp79
g10
g16
sbaa(lp80
g4
(g5
g6
F40.669566028709546
tp81
Rp82
(dp83
g10
g11
sbag4
(g12
g6
F-74.47611414124475
tp84
Rp85
(dp86
g10
g16
sbaa(lp87
g4
(g5
g6
F40.66956521291275
tp88
Rp89
(dp90
g10
g11
sbag4
(g12
g6
F-74.47611306982881
tp91
Rp92
(dp93
g10
g16
sbaa(lp94
g4
(g5
g6
F40.669564397114954
tp95
Rp96
(dp97
g10
g11
sbag4
(g12
g6
F-74.47611306982736
tp98
Rp99
(dp100
g10
g16
sbaa(lp101
g4
(g5
g6
F40.66956358131815
tp102
Rp103
(dp104
g10
g11
sbag4
(g12
g6
F-74.47611199841145
tp105
Rp106
(dp107
g10
g16
sbaa(lp108
g4
(g5
g6
F40.669562765521334
tp109
Rp110
(dp111
g10
g11
sbag4
(g12
g6
F-74.47611092699559
tp112
Rp113
(dp114
g10
g16
sbaa(lp115
g4
(g5
g6
F40.66956276552231
tp116
Rp117
(dp118
g10
g11
sbag4
(g12
g6
F-74.47610985558114
tp119
Rp120
(dp121
g10
g16
sbaa(lp122
g4
(g5
g6
F40.66956194972548
tp123
Rp124
(dp125
g10
g11
sbag4
(g12
g6
F-74.4761087841653
tp126
Rp127
(dp128
g10
g16
sbaa(lp129
g4
(g5
g6
F40.66956113392863
tp130
Rp131
(dp132
g10
g11
sbag4
(g12
g6
F-74.47610771274951
tp133
Rp134
(dp135
g10
g16
sbaa(lp136
g4
(g5
g6
F40.66956031813177
tp137
Rp138
(dp139
g10
g11
sbag4
(g12
g6
F-74.47610664133371
tp140
Rp141
(dp142
g10
g16
sbaa(lp143
g4
(g5
g6
F40.6695603181327
tp144
Rp145
(dp146
g10
g11
sbag4
(g12
g6
F-74.47610556991933
tp147
Rp148
(dp149
g10
g16
sbaa(lp150
g4
(g5
g6
F40.66956031813363
tp151
Rp152
(dp153
g10
g11
sbag4
(g12
g6
F-74.47610449850492
tp154
Rp155
(dp156
g10
g16
sbaa(lp157
g4
(g5
g6
F40.66956031813454
tp158
Rp159
(dp160
g10
g11
sbag4
(g12
g6
F-74.47610342709054
tp161
Rp162
(dp163
g10
g16
sbaa(lp164
g4
(g5
g6
F40.66956031813543
tp165
Rp166
(dp167
g10
g11
sbag4
(g12
g6
F-74.47610235567615
tp168
Rp169
(dp170
g10
g16
sbaa(lp171
g4
(g5
g6
F40.66956113393412
tp172
Rp173
(dp174
g10
g11
sbag4
(g12
g6
F-74.47610128426305
tp175
Rp176
(dp177
g10
g16
sbaa(lp178
g4
(g5
g6
F40.6695603181372
tp179
Rp180
(dp181
g10
g11
sbag4
(g12
g6
F-74.47610021284736
tp182
Rp183
(dp184
g10
g16
sbaa(lp185
g4
(g5
g6
F40.66955950234028
tp186
Rp187
(dp188
g10
g11
sbag4
(g12
g6
F-74.47609914143167
tp189
Rp190
(dp191
g10
g16
sbaa(lp192
g4
(g5
g6
F40.66955868654247
tp193
Rp194
(dp195
g10
g11
sbag4
(g12
g6
F-74.4760991414304
tp196
Rp197
(dp198
g10
g16
sbaa(lp199
g4
(g5
g6
F40.669557870744676
tp200
Rp201
(dp202
g10
g11
sbag4
(g12
g6
F-74.47609914142912
tp203
Rp204
(dp205
g10
g16
sbaa(lp206
g4
(g5
g6
F40.66955705494687
tp207
Rp208
(dp209
g10
g11
sbag4
(g12
g6
F-74.47609914142782
tp210
Rp211
(dp212
g10
g16
sbaa(lp213
g4
(g5
g6
F40.66955623914994
tp214
Rp215
(dp216
g10
g11
sbag4
(g12
g6
F-74.47609807001221
tp217
Rp218
(dp219
g10
g16
sbaa(lp220
g4
(g5
g6
F40.66955623915078
tp221
Rp222
(dp223
g10
g11
sbag4
(g12
g6
F-74.4760969985979
tp224
Rp225
(dp226
g10
g16
sbaa(lp227
g4
(g5
g6
F40.66955623915162
tp228
Rp229
(dp230
g10
g11
sbag4
(g12
g6
F-74.47609592718356
tp231
Rp232
(dp233
g10
g16
sbaa(lp234
g4
(g5
g6
F40.66955542335465
tp235
Rp236
(dp237
g10
g11
sbag4
(g12
g6
F-74.47609485576801
tp238
Rp239
(dp240
g10
g16
sbaa(lp241
g4
(g5
g6
F40.669555423355455
tp242
Rp243
(dp244
g10
g11
sbag4
(g12
g6
F-74.4760937843537
tp245
Rp246
(dp247
g10
g16
sbaa(lp248
g4
(g5
g6
F40.669555423356265
tp249
Rp250
(dp251
g10
g11
sbag4
(g12
g6
F-74.47609271293939
tp252
Rp253
(dp254
g10
g16
sbaa(lp255
g4
(g5
g6
F40.66955542335706
tp256
Rp257
(dp258
g10
g11
sbag4
(g12
g6
F-74.47609164152509
tp259
Rp260
(dp261
g10
g16
sbaa(lp262
g4
(g5
g6
F40.66955460756004
tp263
Rp264
(dp265
g10
g11
sbag4
(g12
g6
F-74.47609057010959
tp266
Rp267
(dp268
g10
g16
sbaa(lp269
g4
(g5
g6
F40.669553791763015
tp270
Rp271
(dp272
g10
g11
sbag4
(g12
g6
F-74.47608949869412
tp273
Rp274
(dp275
g10
g16
sbaa(lp276
g4
(g5
g6
F40.66955379176379
tp277
Rp278
(dp279
g10
g11
sbag4
(g12
g6
F-74.47608842727985
tp280
Rp281
(dp282
g10
g16
sbaa(lp283
g4
(g5
g6
F40.66955297596673
tp284
Rp285
(dp286
g10
g11
sbag4
(g12
g6
F-74.47608735586442
tp287
Rp288
(dp289
g10
g16
sbaa(lp290
g4
(g5
g6
F40.66955297596747
tp291
Rp292
(dp293
g10
g11
sbag4
(g12
g6
F-74.47608628445016
tp294
Rp295
(dp296
g10
g16
sbaa(lp297
g4
(g5
g6
F40.66955216017041
tp298
Rp299
(dp300
g10
g11
sbag4
(g12
g6
F-74.47608521303478
tp301
Rp302
(dp303
g10
g16
sbaa(lp304
g4
(g5
g6
F40.66955134437334
tp305
Rp306
(dp307
g10
g11
sbag4
(g12
g6
F-74.47608414161942
tp308
Rp309
(dp310
g10
g16
sbaa(lp311
g4
(g5
g6
F40.669551344374035
tp312
Rp313
(dp314
g10
g11
sbag4
(g12
g6
F-74.47608307020519
tp315
Rp316
(dp317
g10
g16
sbaa(lp318
g4
(g5
g6
F40.669550528576956
tp319
Rp320
(dp321
g10
g11
sbag4
(g12
g6
F-74.47608199878988
tp322
Rp323
(dp324
g10
g16
sbaa(lp325
g4
(g5
g6
F40.66954971277845
tp326
Rp327
(dp328
g10
g11
sbag4
(g12
g6
F-74.476083070203
tp329
Rp330
(dp331
g10
g16
sbaa(lp332
g4
(g5
g6
F40.66954889698066
tp333
Rp334
(dp335
g10
g11
sbag4
(g12
g6
F-74.47608307020191
tp336
Rp337
(dp338
g10
g16
sbaa(lp339
g4
(g5
g6
F40.66954808118356
tp340
Rp341
(dp342
g10
g11
sbag4
(g12
g6
F-74.47608199878664
tp343
Rp344
(dp345
g10
g16
sbaa(lp346
g4
(g5
g6
F40.66954808118425
tp347
Rp348
(dp349
g10
g11
sbag4
(g12
g6
F-74.47608092737245
tp350
Rp351
(dp352
g10
g16
sbaa(lp353
g4
(g5
g6
F40.66954726538714
tp354
Rp355
(dp356
g10
g11
sbag4
(g12
g6
F-74.47607985595721
tp357
Rp358
(dp359
g10
g16
sbaa(lp360
g4
(g5
g6
F40.66954644959001
tp361
Rp362
(dp363
g10
g11
sbag4
(g12
g6
F-74.47607878454201
tp364
Rp365
(dp366
g10
g16
sbaa(lp367
g4
(g5
g6
F40.66954563379221
tp368
Rp369
(dp370
g10
g11
sbag4
(g12
g6
F-74.47607878454096
tp371
Rp372
(dp373
g10
g16
sbaa(lp374
g4
(g5
g6
F40.669544817994414
tp375
Rp376
(dp377
g10
g11
sbag4
(g12
g6
F-74.47607878453992
tp378
Rp379
(dp380
g10
g16
sbaa(lp381
g4
(g5
g6
F40.669544002196616
tp382
Rp383
(dp384
g10
g11
sbag4
(g12
g6
F-74.47607878453888
tp385
Rp386
(dp387
g10
g16
sbaa(lp388
g4
(g5
g6
F40.669543186398826
tp389
Rp390
(dp391
g10
g11
sbag4
(g12
g6
F-74.47607878453785
tp392
Rp393
(dp394
g10
g16
sbaa(lp395
g4
(g5
g6
F40.66954237060168
tp396
Rp397
(dp398
g10
g11
sbag4
(g12
g6
F-74.47607771312272
tp399
Rp400
(dp401
g10
g16
sbaa(lp402
g4
(g5
g6
F40.66954155480453
tp403
Rp404
(dp405
g10
g11
sbag4
(g12
g6
F-74.4760766417076
tp406
Rp407
(dp408
g10
g16
sbaa(lp409
g4
(g5
g6
F40.669541554805186
tp410
Rp411
(dp412
g10
g11
sbag4
(g12
g6
F-74.47607557029353
tp413
Rp414
(dp415
g10
g16
sbaa(lp416
g4
(g5
g6
F40.66954155480581
tp417
Rp418
(dp419
g10
g11
sbag4
(g12
g6
F-74.47607449887946
tp420
Rp421
(dp422
g10
g16
sbaa(lp423
g4
(g5
g6
F40.66954155480643
tp424
Rp425
(dp426
g10
g11
sbag4
(g12
g6
F-74.47607342746538
tp427
Rp428
(dp429
g10
g16
sbaa(lp430
g4
(g5
g6
F40.669540739009236
tp431
Rp432
(dp433
g10
g11
sbag4
(g12
g6
F-74.47607235605035
tp434
Rp435
(dp436
g10
g16
sbaa(lp437
g4
(g5
g6
F40.669539923211445
tp438
Rp439
(dp440
g10
g11
sbag4
(g12
g6
F-74.47607235604939
tp441
Rp442
(dp443
g10
g16
sbaa(lp444
g4
(g5
g6
F40.66953910741365
tp445
Rp446
(dp447
g10
g11
sbag4
(g12
g6
F-74.47607235604842
tp448
Rp449
(dp450
g10
g16
sbaa(lp451
g4
(g5
g6
F40.66953829161585
tp452
Rp453
(dp454
g10
g11
sbag4
(g12
g6
F-74.47607235604745
tp455
Rp456
(dp457
g10
g16
sbaa(lp458
g4
(g5
g6
F40.66953747581806
tp459
Rp460
(dp461
g10
g11
sbag4
(g12
g6
F-74.4760723560465
tp462
Rp463
(dp464
g10
g16
sbaa(lp465
g4
(g5
g6
F40.66953666002086
tp466
Rp467
(dp468
g10
g11
sbag4
(g12
g6
F-74.47607128463154
tp469
Rp470
(dp471
g10
g16
sbaa(lp472
g4
(g5
g6
F40.669535844223645
tp473
Rp474
(dp475
g10
g11
sbag4
(g12
g6
F-74.4760702132166
tp476
Rp477
(dp478
g10
g16
sbaa(lp479
g4
(g5
g6
F40.66953502842643
tp480
Rp481
(dp482
g10
g11
sbag4
(g12
g6
F-74.4760691418017
tp483
Rp484
(dp485
g10
g16
sbaa(lp486
g4
(g5
g6
F40.66953421262863
tp487
Rp488
(dp489
g10
g11
sbag4
(g12
g6
F-74.47606914180078
tp490
Rp491
(dp492
g10
g16
sbaa(lp493
g4
(g5
g6
F40.66953339683141
tp494
Rp495
(dp496
g10
g11
sbag4
(g12
g6
F-74.47606807038592
tp497
Rp498
(dp499
g10
g16
sbaa(lp500
g4
(g5
g6
F40.66953258103417
tp501
Rp502
(dp503
g10
g11
sbag4
(g12
g6
F-74.47606699897108
tp504
Rp505
(dp506
g10
g16
sbaa(lp507
g4
(g5
g6
F40.66953176523692
tp508
Rp509
(dp510
g10
g11
sbag4
(g12
g6
F-74.47606592755626
tp511
Rp512
(dp513
g10
g16
sbaa(lp514
g4
(g5
g6
F40.669531765237444
tp515
Rp516
(dp517
g10
g11
sbag4
(g12
g6
F-74.47606485614236
tp518
Rp519
(dp520
g10
g16
sbaa(lp521
g4
(g5
g6
F40.66953176523798
tp522
Rp523
(dp524
g10
g11
sbag4
(g12
g6
F-74.47606378472845
tp525
Rp526
(dp527
g10
g16
sbaa(lp528
g4
(g5
g6
F40.6695309494407
tp529
Rp530
(dp531
g10
g11
sbag4
(g12
g6
F-74.4760627133137
tp532
Rp533
(dp534
g10
g16
sbaa(lp535
g4
(g5
g6
F40.66953013364342
tp536
Rp537
(dp538
g10
g11
sbag4
(g12
g6
F-74.47606164189897
tp539
Rp540
(dp541
g10
g16
sbaa(lp542
g4
(g5
g6
F40.66953013364392
tp543
Rp544
(dp545
g10
g11
sbag4
(g12
g6
F-74.47606057048509
tp546
Rp547
(dp548
g10
g16
sbaa(lp549
g4
(g5
g6
F40.6695293178466
tp550
Rp551
(dp552
g10
g11
sbag4
(g12
g6
F-74.4760594990704
tp553
Rp554
(dp555
g10
g16
sbaa(lp556
g4
(g5
g6
F40.66952850204929
tp557
Rp558
(dp559
g10
g11
sbag4
(g12
g6
F-74.47605842765574
tp560
Rp561
(dp562
g10
g16
sbaa(lp563
g4
(g5
g6
F40.66952850204976
tp564
Rp565
(dp566
g10
g11
sbag4
(g12
g6
F-74.4760573562419
tp567
Rp568
(dp569
g10
g16
sbaa(lp570
g4
(g5
g6
F40.66952768625243
tp571
Rp572
(dp573
g10
g11
sbag4
(g12
g6
F-74.47605628482728
tp574
Rp575
(dp576
g10
g16
sbaa(lp577
g4
(g5
g6
F40.669527686252884
tp578
Rp579
(dp580
g10
g11
sbag4
(g12
g6
F-74.47605521341345
tp581
Rp582
(dp583
g10
g16
sbaa(lp584
g4
(g5
g6
F40.669527686253325
tp585
Rp586
(dp587
g10
g11
sbag4
(g12
g6
F-74.47605414199961
tp588
Rp589
(dp590
g10
g16
sbaa(lp591
g4
(g5
g6
F40.669528502051556
tp592
Rp593
(dp594
g10
g11
sbag4
(g12
g6
F-74.47605307058652
tp595
Rp596
(dp597
g10
g16
sbaa(lp598
g4
(g5
g6
F40.66952850205198
tp599
Rp600
(dp601
g10
g11
sbag4
(g12
g6
F-74.47605199917268
tp602
Rp603
(dp604
g10
g16
sbaa(lp605
g4
(g5
g6
F40.669528502052394
tp606
Rp607
(dp608
g10
g11
sbag4
(g12
g6
F-74.47605092775885
tp609
Rp610
(dp611
g10
g16
sbaa(lp612
g4
(g5
g6
F40.6695285020528
tp613
Rp614
(dp615
g10
g11
sbag4
(g12
g6
F-74.476049856345
tp616
Rp617
(dp618
g10
g16
sbaa(lp619
g4
(g5
g6
F40.669528502053204
tp620
Rp621
(dp622
g10
g11
sbag4
(g12
g6
F-74.47604878493117
tp623
Rp624
(dp625
g10
g16
sbaa(lp626
g4
(g5
g6
F40.66952850205359
tp627
Rp628
(dp629
g10
g11
sbag4
(g12
g6
F-74.47604771351735
tp630
Rp631
(dp632
g10
g16
sbaa(lp633
g4
(g5
g6
F40.66952850205397
tp634
Rp635
(dp636
g10
g11
sbag4
(g12
g6
F-74.47604664210351
tp637
Rp638
(dp639
g10
g16
sbaa(lp640
g4
(g5
g6
F40.669528502054334
tp641
Rp642
(dp643
g10
g11
sbag4
(g12
g6
F-74.47604557068968
tp644
Rp645
(dp646
g10
g16
sbaa(lp647
g4
(g5
g6
F40.66952850205471
tp648
Rp649
(dp650
g10
g11
sbag4
(g12
g6
F-74.47604449927586
tp651
Rp652
(dp653
g10
g16
sbaa(lp654
g4
(g5
g6
F40.669527686257254
tp655
Rp656
(dp657
g10
g11
sbag4
(g12
g6
F-74.47604342786141
tp658
Rp659
(dp660
g10
g16
sbaa(lp661
g4
(g5
g6
F40.6695268704598
tp662
Rp663
(dp664
g10
g11
sbag4
(g12
g6
F-74.47604235644698
tp665
Rp666
(dp667
g10
g16
sbaa(lp668
g4
(g5
g6
F40.669526870460146
tp669
Rp670
(dp671
g10
g11
sbag4
(g12
g6
F-74.47604128503319
tp672
Rp673
(dp674
g10
g16
sbaa(lp675
g4
(g5
g6
F40.66952605466266
tp676
Rp677
(dp678
g10
g11
sbag4
(g12
g6
F-74.47604021361882
tp679
Rp680
(dp681
g10
g16
sbaa(lp682
g4
(g5
g6
F40.669525238865184
tp683
Rp684
(dp685
g10
g11
sbag4
(g12
g6
F-74.47603914220447
tp686
Rp687
(dp688
g10
g16
sbaa(lp689
g4
(g5
g6
F40.669525238865496
tp690
Rp691
(dp692
g10
g11
sbag4
(g12
g6
F-74.4760380707907
tp693
Rp694
(dp695
g10
g16
sbaa(lp696
g4
(g5
g6
F40.669524423068
tp697
Rp698
(dp699
g10
g11
sbag4
(g12
g6
F-74.47603699937639
tp700
Rp701
(dp702
g10
g16
sbaa(lp703
g4
(g5
g6
F40.66952442306828
tp704
Rp705
(dp706
g10
g11
sbag4
(g12
g6
F-74.47603592796264
tp707
Rp708
(dp709
g10
g16
sbaa(lp710
g4
(g5
g6
F40.669523607270776
tp711
Rp712
(dp713
g10
g11
sbag4
(g12
g6
F-74.47603485654838
tp714
Rp715
(dp716
g10
g16
sbaa(lp717
g4
(g5
g6
F40.66952279147297
tp718
Rp719
(dp720
g10
g11
sbag4
(g12
g6
F-74.47603485654786
tp721
Rp722
(dp723
g10
g16
sbaa(lp724
g4
(g5
g6
F40.66952197567488
tp725
Rp726
(dp727
g10
g11
sbag4
(g12
g6
F-74.47603592796105
tp728
Rp729
(dp730
g10
g16
sbaa(lp731
g4
(g5
g6
F40.66952115987708
tp732
Rp733
(dp734
g10
g11
sbag4
(g12
g6
F-74.47603592796052
tp735
Rp736
(dp737
g10
g16
sbaa(lp738
g4
(g5
g6
F40.669520344079274
tp739
Rp740
(dp741
g10
g11
sbag4
(g12
g6
F-74.47603592795998
tp742
Rp743
(dp744
g10
g16
sbaa(lp745
g4
(g5
g6
F40.669519528281754
tp746
Rp747
(dp748
g10
g11
sbag4
(g12
g6
F-74.47603485654578
tp749
Rp750
(dp751
g10
g16
sbaa(lp752
g4
(g5
g6
F40.66951871248423
tp753
Rp754
(dp755
g10
g11
sbag4
(g12
g6
F-74.4760337851316
tp756
Rp757
(dp758
g10
g16
sbaa(lp759
g4
(g5
g6
F40.66951789668642
tp760
Rp761
(dp762
g10
g11
sbag4
(g12
g6
F-74.47603378513111
tp763
Rp764
(dp765
g10
g16
sbaa(lp766
g4
(g5
g6
F40.66951708088889
tp767
Rp768
(dp769
g10
g11
sbag4
(g12
g6
F-74.47603271371698
tp770
Rp771
(dp772
g10
g16
sbaa(lp773
g4
(g5
g6
F40.66951626509134
tp774
Rp775
(dp776
g10
g11
sbag4
(g12
g6
F-74.47603164230287
tp777
Rp778
(dp779
g10
g16
sbaa(lp780
g4
(g5
g6
F40.669515449293534
tp781
Rp782
(dp783
g10
g11
sbag4
(g12
g6
F-74.47603164230239
tp784
Rp785
(dp786
g10
g16
sbaa(lp787
g4
(g5
g6
F40.669514633495474
tp788
Rp789
(dp790
g10
g11
sbag4
(g12
g6
F-74.4760327137155
tp791
Rp792
(dp793
g10
g16
sbaa(lp794
g4
(g5
g6
F40.669513817697926
tp795
Rp796
(dp797
g10
g11
sbag4
(g12
g6
F-74.47603164230142
tp798
Rp799
(dp800
g10
g16
sbaa(lp801
g4
(g5
g6
F40.66951300190037
tp802
Rp803
(dp804
g10
g11
sbag4
(g12
g6
F-74.47603057088739
tp805
Rp806
(dp807
g10
g16
sbaa(lp808
g4
(g5
g6
F40.66951218610281
tp809
Rp810
(dp811
g10
g11
sbag4
(g12
g6
F-74.47602949947337
tp812
Rp813
(dp814
g10
g16
sbaa(lp815
g4
(g5
g6
F40.66951218610304
tp816
Rp817
(dp818
g10
g11
sbag4
(g12
g6
F-74.47602842805982
tp819
Rp820
(dp821
g10
g16
sbaa(lp822
g4
(g5
g6
F40.66951218610327
tp823
Rp824
(dp825
g10
g11
sbag4
(g12
g6
F-74.47602735664628
tp826
Rp827
(dp828
g10
g16
sbaa(lp829
g4
(g5
g6
F40.66951218610348
tp830
Rp831
(dp832
g10
g11
sbag4
(g12
g6
F-74.47602628523273
tp833
Rp834
(dp835
g10
g16
sbaa(lp836
g4
(g5
g6
F40.669511370305884
tp837
Rp838
(dp839
g10
g11
sbag4
(g12
g6
F-74.4760252138188
tp840
Rp841
(dp842
g10
g16
sbaa(lp843
g4
(g5
g6
F40.66951055450808
tp844
Rp845
(dp846
g10
g11
sbag4
(g12
g6
F-74.47602521381839
tp847
Rp848
(dp849
g10
g16
sbaa(lp850
g4
(g5
g6
F40.669509738710275
tp851
Rp852
(dp853
g10
g11
sbag4
(g12
g6
F-74.47602521381799
tp854
Rp855
(dp856
g10
g16
sbaa(lp857
g4
(g5
g6
F40.66950892291266
tp858
Rp859
(dp860
g10
g11
sbag4
(g12
g6
F-74.4760241424041
tp861
Rp862
(dp863
g10
g16
sbaa(lp864
g4
(g5
g6
F40.669508107115064
tp865
Rp866
(dp867
g10
g11
sbag4
(g12
g6
F-74.47602307099024
tp868
Rp869
(dp870
g10
g16
sbaa(lp871
g4
(g5
g6
F40.669507291317245
tp872
Rp873
(dp874
g10
g11
sbag4
(g12
g6
F-74.47602307098985
tp875
Rp876
(dp877
g10
g16
sbaa(lp878
g4
(g5
g6
F40.66950647551944
tp879
Rp880
(dp881
g10
g11
sbag4
(g12
g6
F-74.47602307098948
tp882
Rp883
(dp884
g10
g16
sbaa(lp885
g4
(g5
g6
F40.669505659721814
tp886
Rp887
(dp888
g10
g11
sbag4
(g12
g6
F-74.47602199957568
tp889
Rp890
(dp891
g10
g16
sbaa(lp892
g4
(g5
g6
F40.66950484392418
tp893
Rp894
(dp895
g10
g11
sbag4
(g12
g6
F-74.47602092816189
tp896
Rp897
(dp898
g10
g16
sbaa(lp899
g4
(g5
g6
F40.669504028126376
tp900
Rp901
(dp902
g10
g11
sbag4
(g12
g6
F-74.47602092816155
tp903
Rp904
(dp905
g10
g16
sbaa(lp906
g4
(g5
g6
F40.66950321232857
tp907
Rp908
(dp909
g10
g11
sbag4
(g12
g6
F-74.47602092816119
tp910
Rp911
(dp912
g10
g16
sbaa(lp913
g4
(g5
g6
F40.66950239653093
tp914
Rp915
(dp916
g10
g11
sbag4
(g12
g6
F-74.47601985674746
tp917
Rp918
(dp919
g10
g16
sbaa(lp920
g4
(g5
g6
F40.669501580733126
tp921
Rp922
(dp923
g10
g11
sbag4
(g12
g6
F-74.47601985674713
tp924
Rp925
(dp926
g10
g16
sbaa(lp927
g4
(g5
g6
F40.66950076493531
tp928
Rp929
(dp930
g10
g11
sbag4
(g12
g6
F-74.47601985674679
tp931
Rp932
(dp933
g10
g16
sbaa(lp934
g4
(g5
g6
F40.66949994913766
tp935
Rp936
(dp937
g10
g11
sbag4
(g12
g6
F-74.47601878533311
tp938
Rp939
(dp940
g10
g16
sbaa(lp941
g4
(g5
g6
F40.669499133340004
tp942
Rp943
(dp944
g10
g11
sbag4
(g12
g6
F-74.47601771391946
tp945
Rp946
(dp947
g10
g16
sbaa(lp948
g4
(g5
g6
F40.66949831754234
tp949
Rp950
(dp951
g10
g11
sbag4
(g12
g6
F-74.47601664250584
tp952
Rp953
(dp954
g10
g16
sbaa(lp955
g4
(g5
g6
F40.669497501744665
tp956
Rp957
(dp958
g10
g11
sbag4
(g12
g6
F-74.47601557109225
tp959
Rp960
(dp961
g10
g16
sbaa(lp962
g4
(g5
g6
F40.66949668594698
tp963
Rp964
(dp965
g10
g11
sbag4
(g12
g6
F-74.47601449967867
tp966
Rp967
(dp968
g10
g16
sbaa(lp969
g4
(g5
g6
F40.66949587014918
tp970
Rp971
(dp972
g10
g11
sbag4
(g12
g6
F-74.4760144996784
tp973
Rp974
(dp975
g10
g16
sbaa(lp976
g4
(g5
g6
F40.66949505435137
tp977
Rp978
(dp979
g10
g11
sbag4
(g12
g6
F-74.47601449967813
tp980
Rp981
(dp982
g10
g16
sbaa(lp983
g4
(g5
g6
F40.66949423855356
tp984
Rp985
(dp986
g10
g11
sbag4
(g12
g6
F-74.47601449967786
tp987
Rp988
(dp989
g10
g16
sbaa(lp990
g4
(g5
g6
F40.669493422755735
tp991
Rp992
(dp993
g10
g11
sbag4
(g12
g6
F-74.47601449967759
tp994
Rp995
(dp996
g10
g16
sbaa(lp997
g4
(g5
g6
F40.669492606957924
tp998
Rp999
(dp1000
g10
g11
sbag4
(g12
g6
F-74.4760144996773
tp1001
Rp1002
(dp1003
g10
g16
sbaa(lp1004
g4
(g5
g6
F40.66949179116012
tp1005
Rp1006
(dp1007
g10
g11
sbag4
(g12
g6
F-74.47601449967704
tp1008
Rp1009
(dp1010
g10
g16
sbaa(lp1011
g4
(g5
g6
F40.6694909753623
tp1012
Rp1013
(dp1014
g10
g11
sbag4
(g12
g6
F-74.47601449967677
tp1015
Rp1016
(dp1017
g10
g16
sbaa(lp1018
g4
(g5
g6
F40.66949015956449
tp1019
Rp1020
(dp1021
g10
g11
sbag4
(g12
g6
F-74.4760144996765
tp1022
Rp1023
(dp1024
g10
g16
sbaa(lp1025
g4
(g5
g6
F40.66948934376668
tp1026
Rp1027
(dp1028
g10
g11
sbag4
(g12
g6
F-74.47601449967623
tp1029
Rp1030
(dp1031
g10
g16
sbaa(lp1032
g4
(g5
g6
F40.66948852796886
tp1033
Rp1034
(dp1035
g10
g11
sbag4
(g12
g6
F-74.47601449967594
tp1036
Rp1037
(dp1038
g10
g16
sbaa(lp1039
g4
(g5
g6
F40.669487712171176
tp1040
Rp1041
(dp1042
g10
g11
sbag4
(g12
g6
F-74.47601342826253
tp1043
Rp1044
(dp1045
g10
g16
sbaa(lp1046
g4
(g5
g6
F40.66948771217129
tp1047
Rp1048
(dp1049
g10
g11
sbag4
(g12
g6
F-74.4760123568494
tp1050
Rp1051
(dp1052
g10
g16
sbaa(lp1053
g4
(g5
g6
F40.6694877121714
tp1054
Rp1055
(dp1056
g10
g11
sbag4
(g12
g6
F-74.47601128543626
tp1057
Rp1058
(dp1059
g10
g16
sbaa(lp1060
g4
(g5
g6
F40.66948771217151
tp1061
Rp1062
(dp1063
g10
g11
sbag4
(g12
g6
F-74.47601021402313
tp1064
Rp1065
(dp1066
g10
g16
sbaa(lp1067
g4
(g5
g6
F40.6694877121716
tp1068
Rp1069
(dp1070
g10
g11
sbag4
(g12
g6
F-74.47600914261
tp1071
Rp1072
(dp1073
g10
g16
sbaa(lp1074
g4
(g5
g6
F40.669487712171694
tp1075
Rp1076
(dp1077
g10
g11
sbag4
(g12
g6
F-74.47600807119687
tp1078
Rp1079
(dp1080
g10
g16
sbaa(lp1081
g4
(g5
g6
F40.66948771217179
tp1082
Rp1083
(dp1084
g10
g11
sbag4
(g12
g6
F-74.47600699978373
tp1085
Rp1086
(dp1087
g10
g16
sbaa(lp1088
g4
(g5
g6
F40.66948689637404
tp1089
Rp1090
(dp1091
g10
g11
sbag4
(g12
g6
F-74.47600592837044
tp1092
Rp1093
(dp1094
g10
g16
sbaa(lp1095
g4
(g5
g6
F40.669486080576235
tp1096
Rp1097
(dp1098
g10
g11
sbag4
(g12
g6
F-74.47600592837027
tp1099
Rp1100
(dp1101
g10
g16
sbaa(lp1102
g4
(g5
g6
F40.669485264778416
tp1103
Rp1104
(dp1105
g10
g11
sbag4
(g12
g6
F-74.4760059283701
tp1106
Rp1107
(dp1108
g10
g16
sbaa(lp1109
g4
(g5
g6
F40.66948444898067
tp1110
Rp1111
(dp1112
g10
g11
sbag4
(g12
g6
F-74.47600485695686
tp1113
Rp1114
(dp1115
g10
g16
sbaa(lp1116
g4
(g5
g6
F40.66948363318292
tp1117
Rp1118
(dp1119
g10
g11
sbag4
(g12
g6
F-74.47600378554364
tp1120
Rp1121
(dp1122
g10
g16
sbaa(lp1123
g4
(g5
g6
F40.66948281738511
tp1124
Rp1125
(dp1126
g10
g11
sbag4
(g12
g6
F-74.4760037855435
tp1127
Rp1128
(dp1129
g10
g16
sbaa(lp1130
g4
(g5
g6
F40.669482001587355
tp1131
Rp1132
(dp1133
g10
g11
sbag4
(g12
g6
F-74.47600271413032
tp1134
Rp1135
(dp1136
g10
g16
sbaa(lp1137
g4
(g5
g6
F40.66948118578952
tp1138
Rp1139
(dp1140
g10
g11
sbag4
(g12
g6
F-74.47600271413019
tp1141
Rp1142
(dp1143
g10
g16
sbaa(lp1144
g4
(g5
g6
F40.66948036999171
tp1145
Rp1146
(dp1147
g10
g11
sbag4
(g12
g6
F-74.47600271413006
tp1148
Rp1149
(dp1150
g10
g16
sbaa(lp1151
g4
(g5
g6
F40.66947955419389
tp1152
Rp1153
(dp1154
g10
g11
sbag4
(g12
g6
F-74.47600271412992
tp1155
Rp1156
(dp1157
g10
g16
sbaa(lp1158
g4
(g5
g6
F40.66947873839613
tp1159
Rp1160
(dp1161
g10
g11
sbag4
(g12
g6
F-74.47600164271681
tp1162
Rp1163
(dp1164
g10
g16
sbaa(lp1165
g4
(g5
g6
F40.66947792259836
tp1166
Rp1167
(dp1168
g10
g11
sbag4
(g12
g6
F-74.47600057130373
tp1169
Rp1170
(dp1171
g10
g16
sbaa(lp1172
g4
(g5
g6
F40.669477106800585
tp1173
Rp1174
(dp1175
g10
g11
sbag4
(g12
g6
F-74.47599949989068
tp1176
Rp1177
(dp1178
g10
g16
sbaa(lp1179
g4
(g5
g6
F40.6694762910028
tp1180
Rp1181
(dp1182
g10
g11
sbag4
(g12
g6
F-74.47599842847764
tp1183
Rp1184
(dp1185
g10
g16
sbaa(lp1186
g4
(g5
g6
F40.66947547520501
tp1187
Rp1188
(dp1189
g10
g11
sbag4
(g12
g6
F-74.47599735706463
tp1190
Rp1191
(dp1192
g10
g16
sbaa(lp1193
g4
(g5
g6
F40.6694746594072
tp1194
Rp1195
(dp1196
g10
g11
sbag4
(g12
g6
F-74.47599735706457
tp1197
Rp1198
(dp1199
g10
g16
sbaa(lp1200
g4
(g5
g6
F40.669473843609374
tp1201
Rp1202
(dp1203
g10
g11
sbag4
(g12
g6
F-74.4759973570645
tp1204
Rp1205
(dp1206
g10
g16
sbaa(lp1207
g4
(g5
g6
F40.66947302781158
tp1208
Rp1209
(dp1210
g10
g11
sbag4
(g12
g6
F-74.47599628565155
tp1211
Rp1212
(dp1213
g10
g16
sbaa(lp1214
g4
(g5
g6
F40.66947221201378
tp1215
Rp1216
(dp1217
g10
g11
sbag4
(g12
g6
F-74.47599521423862
tp1218
Rp1219
(dp1220
g10
g16
sbaa(lp1221
g4
(g5
g6
F40.66947139621597
tp1222
Rp1223
(dp1224
g10
g11
sbag4
(g12
g6
F-74.47599414282573
tp1225
Rp1226
(dp1227
g10
g16
sbaa(lp1228
g4
(g5
g6
F40.669472212013794
tp1229
Rp1230
(dp1231
g10
g11
sbag4
(g12
g6
F-74.47599307141287
tp1232
Rp1233
(dp1234
g10
g16
sbaa(lp1235
g4
(g5
g6
F40.66947139621598
tp1236
Rp1237
(dp1238
g10
g11
sbag4
(g12
g6
F-74.475992
tp1239
Rp1240
(dp1241
g10
g16
sbaa(lp1242
g4
(g5
g6
F40.669471396215975
tp1243
Rp1244
(dp1245
g10
g11
sbag4
(g12
g6
F-74.47599092858715
tp1246
Rp1247
(dp1248
g10
g16
sbaa(lp1249
g4
(g5
g6
F40.66947139621597
tp1250
Rp1251
(dp1252
g10
g11
sbag4
(g12
g6
F-74.47598985717428
tp1253
Rp1254
(dp1255
g10
g16
sbaa(lp1256
g4
(g5
g6
F40.66947139621596
tp1257
Rp1258
(dp1259
g10
g11
sbag4
(g12
g6
F-74.47598878576143
tp1260
Rp1261
(dp1262
g10
g16
sbaa(lp1263
g4
(g5
g6
F40.669470580418114
tp1264
Rp1265
(dp1266
g10
g11
sbag4
(g12
g6
F-74.47598771434862
tp1267
Rp1268
(dp1269
g10
g16
sbaa(lp1270
g4
(g5
g6
F40.66946976462027
tp1271
Rp1272
(dp1273
g10
g11
sbag4
(g12
g6
F-74.47598664293584
tp1274
Rp1275
(dp1276
g10
g16
sbaa(lp1277
g4
(g5
g6
F40.669468948822455
tp1278
Rp1279
(dp1280
g10
g11
sbag4
(g12
g6
F-74.4759866429359
tp1281
Rp1282
(dp1283
g10
g16
sbaa(lp1284
g4
(g5
g6
F40.6694681330246
tp1285
Rp1286
(dp1287
g10
g11
sbag4
(g12
g6
F-74.47598557152315
tp1288
Rp1289
(dp1290
g10
g16
sbaa(lp1291
g4
(g5
g6
F40.66946731722678
tp1292
Rp1293
(dp1294
g10
g11
sbag4
(g12
g6
F-74.47598557152324
tp1295
Rp1296
(dp1297
g10
g16
sbaa(lp1298
g4
(g5
g6
F40.669466501428964
tp1299
Rp1300
(dp1301
g10
g11
sbag4
(g12
g6
F-74.47598557152331
tp1302
Rp1303
(dp1304
g10
g16
sbaa(lp1305
g4
(g5
g6
F40.66946568563111
tp1306
Rp1307
(dp1308
g10
g11
sbag4
(g12
g6
F-74.47598450011061
tp1309
Rp1310
(dp1311
g10
g16
sbaa(lp1312
g4
(g5
g6
F40.66946486983329
tp1313
Rp1314
(dp1315
g10
g11
sbag4
(g12
g6
F-74.47598450011071
tp1316
Rp1317
(dp1318
g10
g16
sbaa(lp1319
g4
(g5
g6
F40.66946405403543
tp1320
Rp1321
(dp1322
g10
g11
sbag4
(g12
g6
F-74.47598342869806
tp1323
Rp1324
(dp1325
g10
g16
sbaa(lp1326
g4
(g5
g6
F40.66946323823757
tp1327
Rp1328
(dp1329
g10
g11
sbag4
(g12
g6
F-74.47598235728543
tp1330
Rp1331
(dp1332
g10
g16
sbaa(lp1333
g4
(g5
g6
F40.6694624224397
tp1334
Rp1335
(dp1336
g10
g11
sbag4
(g12
g6
F-74.47598128587282
tp1337
Rp1338
(dp1339
g10
g16
sbaa(lp1340
g4
(g5
g6
F40.669461606641825
tp1341
Rp1342
(dp1343
g10
g11
sbag4
(g12
g6
F-74.47598021446024
tp1344
Rp1345
(dp1346
g10
g16
sbaa(lp1347
g4
(g5
g6
F40.669461606641754
tp1348
Rp1349
(dp1350
g10
g11
sbag4
(g12
g6
F-74.47597914304754
tp1351
Rp1352
(dp1353
g10
g16
sbaa(lp1354
g4
(g5
g6
F40.66946160664169
tp1355
Rp1356
(dp1357
g10
g11
sbag4
(g12
g6
F-74.47597807163481
tp1358
Rp1359
(dp1360
g10
g16
sbaa(lp1361
g4
(g5
g6
F40.66946242243944
tp1362
Rp1363
(dp1364
g10
g11
sbag4
(g12
g6
F-74.47597700022192
tp1365
Rp1366
(dp1367
g10
g16
sbaa(lp1368
g4
(g5
g6
F40.669461606641555
tp1369
Rp1370
(dp1371
g10
g11
sbag4
(g12
g6
F-74.47597592880939
tp1372
Rp1373
(dp1374
g10
g16
sbaa(lp1375
g4
(g5
g6
F40.66946079084365
tp1376
Rp1377
(dp1378
g10
g11
sbag4
(g12
g6
F-74.47597485739688
tp1379
Rp1380
(dp1381
g10
g16
sbaa(lp1382
g4
(g5
g6
F40.66945997504575
tp1383
Rp1384
(dp1385
g10
g11
sbag4
(g12
g6
F-74.4759737859844
tp1386
Rp1387
(dp1388
g10
g16
sbaa(lp1389
g4
(g5
g6
F40.669459159247936
tp1390
Rp1391
(dp1392
g10
g11
sbag4
(g12
g6
F-74.47597378598462
tp1393
Rp1394
(dp1395
g10
g16
sbaa(lp1396
g4
(g5
g6
F40.66945834345012
tp1397
Rp1398
(dp1399
g10
g11
sbag4
(g12
g6
F-74.47597378598483
tp1400
Rp1401
(dp1402
g10
g16
sbaa(lp1403
g4
(g5
g6
F40.66945752765221
tp1404
Rp1405
(dp1406
g10
g11
sbag4
(g12
g6
F-74.4759727145724
tp1407
Rp1408
(dp1409
g10
g16
sbaa(lp1410
g4
(g5
g6
F40.669456711854295
tp1411
Rp1412
(dp1413
g10
g11
sbag4
(g12
g6
F-74.47597164316
tp1414
Rp1415
(dp1416
g10
g16
sbaa(lp1417
g4
(g5
g6
F40.66945589605647
tp1418
Rp1419
(dp1420
g10
g11
sbag4
(g12
g6
F-74.47597164316024
tp1421
Rp1422
(dp1423
g10
g16
sbaa(lp1424
g4
(g5
g6
F40.66945508025856
tp1425
Rp1426
(dp1427
g10
g11
sbag4
(g12
g6
F-74.47597057174787
tp1428
Rp1429
(dp1430
g10
g16
sbaa(lp1431
g4
(g5
g6
F40.66945426446074
tp1432
Rp1433
(dp1434
g10
g11
sbag4
(g12
g6
F-74.47597057174812
tp1435
Rp1436
(dp1437
g10
g16
sbaa(lp1438
g4
(g5
g6
F40.669453448662814
tp1439
Rp1440
(dp1441
g10
g11
sbag4
(g12
g6
F-74.47596950033578
tp1442
Rp1443
(dp1444
g10
g16
sbaa(lp1445
g4
(g5
g6
F40.669452632864996
tp1446
Rp1447
(dp1448
g10
g11
sbag4
(g12
g6
F-74.47596950033605
tp1449
Rp1450
(dp1451
g10
g16
sbaa(lp1452
g4
(g5
g6
F40.669451817067184
tp1453
Rp1454
(dp1455
g10
g11
sbag4
(g12
g6
F-74.47596950033632
tp1456
Rp1457
(dp1458
g10
g16
sbaa(lp1459
g4
(g5
g6
F40.669451001269366
tp1460
Rp1461
(dp1462
g10
g11
sbag4
(g12
g6
F-74.4759695003366
tp1463
Rp1464
(dp1465
g10
g16
sbaa(lp1466
g4
(g5
g6
F40.66945018547155
tp1467
Rp1468
(dp1469
g10
g11
sbag4
(g12
g6
F-74.47596950033687
tp1470
Rp1471
(dp1472
g10
g16
sbaa(lp1473
g4
(g5
g6
F40.669449369673735
tp1474
Rp1475
(dp1476
g10
g11
sbag4
(g12
g6
F-74.47596950033714
tp1477
Rp1478
(dp1479
g10
g16
sbaa(lp1480
g4
(g5
g6
F40.669448553875924
tp1481
Rp1482
(dp1483
g10
g11
sbag4
(g12
g6
F-74.47596950033741
tp1484
Rp1485
(dp1486
g10
g16
sbaa(lp1487
g4
(g5
g6
F40.66944773807799
tp1488
Rp1489
(dp1490
g10
g11
sbag4
(g12
g6
F-74.47596842892517
tp1491
Rp1492
(dp1493
g10
g16
sbaa(lp1494
g4
(g5
g6
F40.66944692228005
tp1495
Rp1496
(dp1497
g10
g11
sbag4
(g12
g6
F-74.47596735751296
tp1498
Rp1499
(dp1500
g10
g16
sbaa(lp1501
g4
(g5
g6
F40.66944610648224
tp1502
Rp1503
(dp1504
g10
g11
sbag4
(g12
g6
F-74.47596735751326
tp1505
Rp1506
(dp1507
g10
g16
sbaa(lp1508
g4
(g5
g6
F40.66944529068442
tp1509
Rp1510
(dp1511
g10
g11
sbag4
(g12
g6
F-74.47596735751354
tp1512
Rp1513
(dp1514
g10
g16
sbaa(lp1515
g4
(g5
g6
F40.66944447488662
tp1516
Rp1517
(dp1518
g10
g11
sbag4
(g12
g6
F-74.47596735751384
tp1519
Rp1520
(dp1521
g10
g16
sbaa(lp1522
g4
(g5
g6
F40.669443659088905
tp1523
Rp1524
(dp1525
g10
g11
sbag4
(g12
g6
F-74.47596842892659
tp1526
Rp1527
(dp1528
g10
g16
sbaa(lp1529
g4
(g5
g6
F40.6694428432912
tp1530
Rp1531
(dp1532
g10
g11
sbag4
(g12
g6
F-74.47596950033932
tp1533
Rp1534
(dp1535
g10
g16
sbaa(lp1536
g4
(g5
g6
F40.66944202749339
tp1537
Rp1538
(dp1539
g10
g11
sbag4
(g12
g6
F-74.47596950033959
tp1540
Rp1541
(dp1542
g10
g16
sbaa(lp1543
g4
(g5
g6
F40.66944121169557
tp1544
Rp1545
(dp1546
g10
g11
sbag4
(g12
g6
F-74.47596950033986
tp1547
Rp1548
(dp1549
g10
g16
sbaa(lp1550
g4
(g5
g6
F40.669440395897745
tp1551
Rp1552
(dp1553
g10
g11
sbag4
(g12
g6
F-74.47596950034013
tp1554
Rp1555
(dp1556
g10
g16
sbaa(lp1557
g4
(g5
g6
F40.66943958009994
tp1558
Rp1559
(dp1560
g10
g11
sbag4
(g12
g6
F-74.4759695003404
tp1561
Rp1562
(dp1563
g10
g16
sbaa(lp1564
g4
(g5
g6
F40.669438764302114
tp1565
Rp1566
(dp1567
g10
g11
sbag4
(g12
g6
F-74.47596950034067
tp1568
Rp1569
(dp1570
g10
g16
sbaa(lp1571
g4
(g5
g6
F40.6694379485043
tp1572
Rp1573
(dp1574
g10
g11
sbag4
(g12
g6
F-74.47596950034094
tp1575
Rp1576
(dp1577
g10
g16
sbaa(lp1578
g4
(g5
g6
F40.66943713270648
tp1579
Rp1580
(dp1581
g10
g11
sbag4
(g12
g6
F-74.47596950034121
tp1582
Rp1583
(dp1584
g10
g16
sbaa(lp1585
g4
(g5
g6
F40.66943631690856
tp1586
Rp1587
(dp1588
g10
g11
sbag4
(g12
g6
F-74.47596842892914
tp1589
Rp1590
(dp1591
g10
g16
sbaa(lp1592
g4
(g5
g6
F40.66943550111064
tp1593
Rp1594
(dp1595
g10
g11
sbag4
(g12
g6
F-74.4759673575171
tp1596
Rp1597
(dp1598
g10
g16
sbaa(lp1599
g4
(g5
g6
F40.66943468531271
tp1600
Rp1601
(dp1602
g10
g11
sbag4
(g12
g6
F-74.47596628610508
tp1603
Rp1604
(dp1605
g10
g16
sbaa(lp1606
g4
(g5
g6
F40.669433869514776
tp1607
Rp1608
(dp1609
g10
g11
sbag4
(g12
g6
F-74.47596521469308
tp1610
Rp1611
(dp1612
g10
g16
sbaa(lp1613
g4
(g5
g6
F40.66943305371684
tp1614
Rp1615
(dp1616
g10
g11
sbag4
(g12
g6
F-74.4759641432811
tp1617
Rp1618
(dp1619
g10
g16
sbaa(lp1620
g4
(g5
g6
F40.6694330537167
tp1621
Rp1622
(dp1623
g10
g11
sbag4
(g12
g6
F-74.4759630718688
tp1624
Rp1625
(dp1626
g10
g16
sbaa(lp1627
g4
(g5
g6
F40.66943223791875
tp1628
Rp1629
(dp1630
g10
g11
sbag4
(g12
g6
F-74.47596200045686
tp1631
Rp1632
(dp1633
g10
g16
sbaa(lp1634
g4
(g5
g6
F40.669431422120795
tp1635
Rp1636
(dp1637
g10
g11
sbag4
(g12
g6
F-74.47596092904493
tp1638
Rp1639
(dp1640
g10
g16
sbaa(lp1641
g4
(g5
g6
F40.66943142212063
tp1642
Rp1643
(dp1644
g10
g11
sbag4
(g12
g6
F-74.47595985763265
tp1645
Rp1646
(dp1647
g10
g16
sbaa(lp1648
g4
(g5
g6
F40.66943060632265
tp1649
Rp1650
(dp1651
g10
g11
sbag4
(g12
g6
F-74.47595878622074
tp1652
Rp1653
(dp1654
g10
g16
sbaa(lp1655
g4
(g5
g6
F40.66942979052467
tp1656
Rp1657
(dp1658
g10
g11
sbag4
(g12
g6
F-74.47595771480887
tp1659
Rp1660
(dp1661
g10
g16
sbaa(lp1662
g4
(g5
g6
F40.66942897472667
tp1663
Rp1664
(dp1665
g10
g11
sbag4
(g12
g6
F-74.47595664339703
tp1666
Rp1667
(dp1668
g10
g16
sbaa(lp1669
g4
(g5
g6
F40.66942815892867
tp1670
Rp1671
(dp1672
g10
g11
sbag4
(g12
g6
F-74.47595557198518
tp1673
Rp1674
(dp1675
g10
g16
sbaa(lp1676
g4
(g5
g6
F40.66942734313066
tp1677
Rp1678
(dp1679
g10
g11
sbag4
(g12
g6
F-74.47595450057338
tp1680
Rp1681
(dp1682
g10
g16
sbaa(lp1683
g4
(g5
g6
F40.669427343130444
tp1684
Rp1685
(dp1686
g10
g11
sbag4
(g12
g6
F-74.47595342916114
tp1687
Rp1688
(dp1689
g10
g16
sbaa(lp1690
g4
(g5
g6
F40.669427343130224
tp1691
Rp1692
(dp1693
g10
g11
sbag4
(g12
g6
F-74.47595235774888
tp1694
Rp1695
(dp1696
g10
g16
sbaa(lp1697
g4
(g5
g6
F40.66942734312999
tp1698
Rp1699
(dp1700
g10
g11
sbag4
(g12
g6
F-74.47595128633664
tp1701
Rp1702
(dp1703
g10
g16
sbaa(lp1704
g4
(g5
g6
F40.66942734312976
tp1705
Rp1706
(dp1707
g10
g11
sbag4
(g12
g6
F-74.47595021492438
tp1708
Rp1709
(dp1710
g10
g16
sbaa(lp1711
g4
(g5
g6
F40.66942734312949
tp1712
Rp1713
(dp1714
g10
g11
sbag4
(g12
g6
F-74.47594914351212
tp1715
Rp1716
(dp1717
g10
g16
sbaa(lp1718
g4
(g5
g6
F40.669428158927055
tp1719
Rp1720
(dp1721
g10
g11
sbag4
(g12
g6
F-74.47594807209936
tp1722
Rp1723
(dp1724
g10
g16
sbaa(lp1725
g4
(g5
g6
F40.66942815892677
tp1726
Rp1727
(dp1728
g10
g11
sbag4
(g12
g6
F-74.47594700068709
tp1729
Rp1730
(dp1731
g10
g16
sbaa(lp1732
g4
(g5
g6
F40.669428158926486
tp1733
Rp1734
(dp1735
g10
g11
sbag4
(g12
g6
F-74.47594592927481
tp1736
Rp1737
(dp1738
g10
g16
sbaa(lp1739
g4
(g5
g6
F40.66942815892619
tp1740
Rp1741
(dp1742
g10
g11
sbag4
(g12
g6
F-74.47594485786253
tp1743
Rp1744
(dp1745
g10
g16
sbaa(lp1746
g4
(g5
g6
F40.669428158925875
tp1747
Rp1748
(dp1749
g10
g11
sbag4
(g12
g6
F-74.47594378645026
tp1750
Rp1751
(dp1752
g10
g16
sbaa(lp1753
g4
(g5
g6
F40.669428158925555
tp1754
Rp1755
(dp1756
g10
g11
sbag4
(g12
g6
F-74.47594271503797
tp1757
Rp1758
(dp1759
g10
g16
sbaa(lp1760
g4
(g5
g6
F40.669428158925214
tp1761
Rp1762
(dp1763
g10
g11
sbag4
(g12
g6
F-74.47594164362569
tp1764
Rp1765
(dp1766
g10
g16
sbaa(lp1767
g4
(g5
g6
F40.66942815892486
tp1768
Rp1769
(dp1770
g10
g11
sbag4
(g12
g6
F-74.47594057221342
tp1771
Rp1772
(dp1773
g10
g16
sbaa(lp1774
g4
(g5
g6
F40.66942734312668
tp1775
Rp1776
(dp1777
g10
g11
sbag4
(g12
g6
F-74.47593950080174
tp1778
Rp1779
(dp1780
g10
g16
sbaa(lp1781
g4
(g5
g6
F40.66942652732848
tp1782
Rp1783
(dp1784
g10
g11
sbag4
(g12
g6
F-74.4759384293901
tp1785
Rp1786
(dp1787
g10
g16
sbaa(lp1788
g4
(g5
g6
F40.669425711530266
tp1789
Rp1790
(dp1791
g10
g11
sbag4
(g12
g6
F-74.47593735797848
tp1792
Rp1793
(dp1794
g10
g16
sbaa(lp1795
g4
(g5
g6
F40.66942489573244
tp1796
Rp1797
(dp1798
g10
g11
sbag4
(g12
g6
F-74.47593735797912
tp1799
Rp1800
(dp1801
g10
g16
sbaa(lp1802
g4
(g5
g6
F40.6694240799342
tp1803
Rp1804
(dp1805
g10
g11
sbag4
(g12
g6
F-74.47593628656755
tp1806
Rp1807
(dp1808
g10
g16
sbaa(lp1809
g4
(g5
g6
F40.66942407993378
tp1810
Rp1811
(dp1812
g10
g11
sbag4
(g12
g6
F-74.47593521515532
tp1813
Rp1814
(dp1815
g10
g16
sbaa(lp1816
g4
(g5
g6
F40.66942326413551
tp1817
Rp1818
(dp1819
g10
g11
sbag4
(g12
g6
F-74.47593414374379
tp1820
Rp1821
(dp1822
g10
g16
sbaa(lp1823
g4
(g5
g6
F40.66942244833768
tp1824
Rp1825
(dp1826
g10
g11
sbag4
(g12
g6
F-74.47593414374447
tp1827
Rp1828
(dp1829
g10
g16
sbaa(lp1830
g4
(g5
g6
F40.66942163253938
tp1831
Rp1832
(dp1833
g10
g11
sbag4
(g12
g6
F-74.47593307233296
tp1834
Rp1835
(dp1836
g10
g16
sbaa(lp1837
g4
(g5
g6
F40.669420816741074
tp1838
Rp1839
(dp1840
g10
g11
sbag4
(g12
g6
F-74.4759320009215
tp1841
Rp1842
(dp1843
g10
g16
sbaa(lp1844
g4
(g5
g6
F40.66942081674057
tp1845
Rp1846
(dp1847
g10
g11
sbag4
(g12
g6
F-74.47593092950933
tp1848
Rp1849
(dp1850
g10
g16
sbaa(lp1851
g4
(g5
g6
F40.669420816740065
tp1852
Rp1853
(dp1854
g10
g11
sbag4
(g12
g6
F-74.47592985809717
tp1855
Rp1856
(dp1857
g10
g16
sbaa(lp1858
g4
(g5
g6
F40.66942081673954
tp1859
Rp1860
(dp1861
g10
g11
sbag4
(g12
g6
F-74.47592878668502
tp1862
Rp1863
(dp1864
g10
g16
sbaa(lp1865
g4
(g5
g6
F40.669420816739006
tp1866
Rp1867
(dp1868
g10
g11
sbag4
(g12
g6
F-74.47592771527286
tp1869
Rp1870
(dp1871
g10
g16
sbaa(lp1872
g4
(g5
g6
F40.6694200009406
tp1873
Rp1874
(dp1875
g10
g11
sbag4
(g12
g6
F-74.47592664386148
tp1876
Rp1877
(dp1878
g10
g16
sbaa(lp1879
g4
(g5
g6
F40.66942000094002
tp1880
Rp1881
(dp1882
g10
g11
sbag4
(g12
g6
F-74.47592557244936
tp1883
Rp1884
(dp1885
g10
g16
sbaa(lp1886
g4
(g5
g6
F40.66942000093944
tp1887
Rp1888
(dp1889
g10
g11
sbag4
(g12
g6
F-74.47592450103723
tp1890
Rp1891
(dp1892
g10
g16
sbaa(lp1893
g4
(g5
g6
F40.669420000938835
tp1894
Rp1895
(dp1896
g10
g11
sbag4
(g12
g6
F-74.4759234296251
tp1897
Rp1898
(dp1899
g10
g16
sbaa(lp1900
g4
(g5
g6
F40.66942081673609
tp1901
Rp1902
(dp1903
g10
g11
sbag4
(g12
g6
F-74.47592235821213
tp1904
Rp1905
(dp1906
g10
g16
sbaa(lp1907
g4
(g5
g6
F40.66942163253332
tp1908
Rp1909
(dp1910
g10
g11
sbag4
(g12
g6
F-74.47592128679914
tp1911
Rp1912
(dp1913
g10
g16
sbaa(lp1914
g4
(g5
g6
F40.66942244833056
tp1915
Rp1916
(dp1917
g10
g11
sbag4
(g12
g6
F-74.47592021538613
tp1918
Rp1919
(dp1920
g10
g16
sbaa(lp1921
g4
(g5
g6
F40.669422448329904
tp1922
Rp1923
(dp1924
g10
g11
sbag4
(g12
g6
F-74.47591914397397
tp1925
Rp1926
(dp1927
g10
g16
sbaa(lp1928
g4
(g5
g6
F40.66942163253136
tp1929
Rp1930
(dp1931
g10
g11
sbag4
(g12
g6
F-74.4759180725627
tp1932
Rp1933
(dp1934
g10
g16
sbaa(lp1935
g4
(g5
g6
F40.66942081673278
tp1936
Rp1937
(dp1938
g10
g11
sbag4
(g12
g6
F-74.47591700115149
tp1939
Rp1940
(dp1941
g10
g16
sbaa(lp1942
g4
(g5
g6
F40.66942000093418
tp1943
Rp1944
(dp1945
g10
g11
sbag4
(g12
g6
F-74.4759159297403
tp1946
Rp1947
(dp1948
g10
g16
sbaa(lp1949
g4
(g5
g6
F40.66941918513557
tp1950
Rp1951
(dp1952
g10
g11
sbag4
(g12
g6
F-74.47591485832915
tp1953
Rp1954
(dp1955
g10
g16
sbaa(lp1956
g4
(g5
g6
F40.669418369336924
tp1957
Rp1958
(dp1959
g10
g11
sbag4
(g12
g6
F-74.47591378691806
tp1960
Rp1961
(dp1962
g10
g16
sbaa(lp1963
g4
(g5
g6
F40.66941836933615
tp1964
Rp1965
(dp1966
g10
g11
sbag4
(g12
g6
F-74.475912715506
tp1967
Rp1968
(dp1969
g10
g16
sbaa(lp1970
g4
(g5
g6
F40.66941836933536
tp1971
Rp1972
(dp1973
g10
g11
sbag4
(g12
g6
F-74.47591164409396
tp1974
Rp1975
(dp1976
g10
g16
sbaa(lp1977
g4
(g5
g6
F40.66941755353666
tp1978
Rp1979
(dp1980
g10
g11
sbag4
(g12
g6
F-74.47591057268293
tp1981
Rp1982
(dp1983
g10
g16
sbaa(lp1984
g4
(g5
g6
F40.66941673773874
tp1985
Rp1986
(dp1987
g10
g11
sbag4
(g12
g6
F-74.47591057268396
tp1988
Rp1989
(dp1990
g10
g16
sbaa(lp1991
g4
(g5
g6
F40.66941592194164
tp1992
Rp1993
(dp1994
g10
g11
sbag4
(g12
g6
F-74.47591164409698
tp1995
Rp1996
(dp1997
g10
g16
sbaa(lp1998
g4
(g5
g6
F40.66941510614291
tp1999
Rp2000
(dp2001
g10
g11
sbag4
(g12
g6
F-74.47591057268602
tp2002
Rp2003
(dp2004
g10
g16
sbaa(lp2005
g4
(g5
g6
F40.66941429034416
tp2006
Rp2007
(dp2008
g10
g11
sbag4
(g12
g6
F-74.47590950127511
tp2009
Rp2010
(dp2011
g10
g16
sbaa(lp2012
g4
(g5
g6
F40.66941347454622
tp2013
Rp2014
(dp2015
g10
g11
sbag4
(g12
g6
F-74.47590950127616
tp2016
Rp2017
(dp2018
g10
g16
sbaa(lp2019
g4
(g5
g6
F40.66941265874743
tp2020
Rp2021
(dp2022
g10
g11
sbag4
(g12
g6
F-74.47590842986531
tp2023
Rp2024
(dp2025
g10
g16
sbaa(lp2026
g4
(g5
g6
F40.66941184294862
tp2027
Rp2028
(dp2029
g10
g11
sbag4
(g12
g6
F-74.47590735845452
tp2030
Rp2031
(dp2032
g10
g16
sbaa(lp2033
g4
(g5
g6
F40.669411842947746
tp2034
Rp2035
(dp2036
g10
g11
sbag4
(g12
g6
F-74.47590628704265
tp2037
Rp2038
(dp2039
g10
g16
sbaa(lp2040
g4
(g5
g6
F40.669411842946836
tp2041
Rp2042
(dp2043
g10
g11
sbag4
(g12
g6
F-74.47590521563079
tp2044
Rp2045
(dp2046
g10
g16
sbaa(lp2047
g4
(g5
g6
F40.66941184294591
tp2048
Rp2049
(dp2050
g10
g11
sbag4
(g12
g6
F-74.47590414421893
tp2051
Rp2052
(dp2053
g10
g16
sbaa(lp2054
g4
(g5
g6
F40.669411842944996
tp2055
Rp2056
(dp2057
g10
g11
sbag4
(g12
g6
F-74.47590307280709
tp2058
Rp2059
(dp2060
g10
g16
sbaa(lp2061
g4
(g5
g6
F40.669411842944044
tp2062
Rp2063
(dp2064
g10
g11
sbag4
(g12
g6
F-74.47590200139524
tp2065
Rp2066
(dp2067
g10
g16
sbaa(lp2068
g4
(g5
g6
F40.66941102714512
tp2069
Rp2070
(dp2071
g10
g11
sbag4
(g12
g6
F-74.47590092998462
tp2072
Rp2073
(dp2074
g10
g16
sbaa(lp2075
g4
(g5
g6
F40.66941021134715
tp2076
Rp2077
(dp2078
g10
g11
sbag4
(g12
g6
F-74.47590092998585
tp2079
Rp2080
(dp2081
g10
g16
sbaa(lp2082
g4
(g5
g6
F40.66940939554917
tp2083
Rp2084
(dp2085
g10
g11
sbag4
(g12
g6
F-74.47590092998708
tp2086
Rp2087
(dp2088
g10
g16
sbaa(lp2089
g4
(g5
g6
F40.66940857975119
tp2090
Rp2091
(dp2092
g10
g11
sbag4
(g12
g6
F-74.47590092998831
tp2093
Rp2094
(dp2095
g10
g16
sbaa(lp2096
g4
(g5
g6
F40.669407763952215
tp2097
Rp2098
(dp2099
g10
g11
sbag4
(g12
g6
F-74.47589985857783
tp2100
Rp2101
(dp2102
g10
g16
sbaa(lp2103
g4
(g5
g6
F40.66940694815424
tp2104
Rp2105
(dp2106
g10
g11
sbag4
(g12
g6
F-74.4758998585791
tp2107
Rp2108
(dp2109
g10
g16
sbaa(lp2110
g4
(g5
g6
F40.66940613235524
tp2111
Rp2112
(dp2113
g10
g11
sbag4
(g12
g6
F-74.47589878716869
tp2114
Rp2115
(dp2116
g10
g16
sbaa(lp2117
g4
(g5
g6
F40.669406132354204
tp2118
Rp2119
(dp2120
g10
g11
sbag4
(g12
g6
F-74.47589771575701
tp2121
Rp2122
(dp2123
g10
g16
sbaa(lp2124
g4
(g5
g6
F40.66940613235318
tp2125
Rp2126
(dp2127
g10
g11
sbag4
(g12
g6
F-74.47589664434535
tp2128
Rp2129
(dp2130
g10
g16
sbaa(lp2131
g4
(g5
g6
F40.66940613235212
tp2132
Rp2133
(dp2134
g10
g11
sbag4
(g12
g6
F-74.4758955729337
tp2135
Rp2136
(dp2137
g10
g16
sbaa(lp2138
g4
(g5
g6
F40.669406132351064
tp2139
Rp2140
(dp2141
g10
g11
sbag4
(g12
g6
F-74.47589450152205
tp2142
Rp2143
(dp2144
g10
g16
sbaa(lp2145
g4
(g5
g6
F40.66940531655198
tp2146
Rp2147
(dp2148
g10
g11
sbag4
(g12
g6
F-74.47589343011181
tp2149
Rp2150
(dp2151
g10
g16
sbaa(lp2152
g4
(g5
g6
F40.66940531655089
tp2153
Rp2154
(dp2155
g10
g11
sbag4
(g12
g6
F-74.47589235870021
tp2156
Rp2157
(dp2158
g10
g16
sbaa(lp2159
g4
(g5
g6
F40.66940450075176
tp2160
Rp2161
(dp2162
g10
g11
sbag4
(g12
g6
F-74.47589128729005
tp2163
Rp2164
(dp2165
g10
g16
sbaa(lp2166
g4
(g5
g6
F40.669404500750645
tp2167
Rp2168
(dp2169
g10
g11
sbag4
(g12
g6
F-74.47589021587848
tp2170
Rp2171
(dp2172
g10
g16
sbaa(lp2173
g4
(g5
g6
F40.66940368495149
tp2174
Rp2175
(dp2176
g10
g11
sbag4
(g12
g6
F-74.47588914446841
tp2177
Rp2178
(dp2179
g10
g16
sbaa(lp2180
g4
(g5
g6
F40.66940286915233
tp2181
Rp2182
(dp2183
g10
g11
sbag4
(g12
g6
F-74.4758880730584
tp2184
Rp2185
(dp2186
g10
g16
sbaa(lp2187
g4
(g5
g6
F40.6694020533543
tp2188
Rp2189
(dp2190
g10
g11
sbag4
(g12
g6
F-74.47588807305995
tp2191
Rp2192
(dp2193
g10
g16
sbaa(lp2194
g4
(g5
g6
F40.6694012375551
tp2195
Rp2196
(dp2197
g10
g11
sbag4
(g12
g6
F-74.47588700165002
tp2198
Rp2199
(dp2200
g10
g16
sbaa(lp2201
g4
(g5
g6
F40.66940042175588
tp2202
Rp2203
(dp2204
g10
g11
sbag4
(g12
g6
F-74.47588593024017
tp2205
Rp2206
(dp2207
g10
g16
sbaa(lp2208
g4
(g5
g6
F40.66939960595667
tp2209
Rp2210
(dp2211
g10
g11
sbag4
(g12
g6
F-74.47588485883036
tp2212
Rp2213
(dp2214
g10
g16
sbaa(lp2215
g4
(g5
g6
F40.66939960595547
tp2216
Rp2217
(dp2218
g10
g11
sbag4
(g12
g6
F-74.47588378741895
tp2219
Rp2220
(dp2221
g10
g16
sbaa(lp2222
g4
(g5
g6
F40.66939960595427
tp2223
Rp2224
(dp2225
g10
g11
sbag4
(g12
g6
F-74.47588271600756
tp2226
Rp2227
(dp2228
g10
g16
sbaa(lp2229
g4
(g5
g6
F40.66939879015501
tp2230
Rp2231
(dp2232
g10
g11
sbag4
(g12
g6
F-74.47588164459788
tp2233
Rp2234
(dp2235
g10
g16
sbaa(lp2236
g4
(g5
g6
F40.66939797435573
tp2237
Rp2238
(dp2239
g10
g11
sbag4
(g12
g6
F-74.47588057318823
tp2240
Rp2241
(dp2242
g10
g16
sbaa(lp2243
g4
(g5
g6
F40.66939715855644
tp2244
Rp2245
(dp2246
g10
g11
sbag4
(g12
g6
F-74.47587950177866
tp2247
Rp2248
(dp2249
g10
g16
sbaa(lp2250
g4
(g5
g6
F40.66939634275841
tp2251
Rp2252
(dp2253
g10
g11
sbag4
(g12
g6
F-74.47587950178044
tp2254
Rp2255
(dp2256
g10
g16
sbaa(lp2257
g4
(g5
g6
F40.66939552696036
tp2258
Rp2259
(dp2260
g10
g11
sbag4
(g12
g6
F-74.47587950178222
tp2261
Rp2262
(dp2263
g10
g16
sbaa(lp2264
g4
(g5
g6
F40.66939471116106
tp2265
Rp2266
(dp2267
g10
g11
sbag4
(g12
g6
F-74.47587843037276
tp2268
Rp2269
(dp2270
g10
g16
sbaa(lp2271
g4
(g5
g6
F40.669394711159796
tp2272
Rp2273
(dp2274
g10
g11
sbag4
(g12
g6
F-74.47587735896153
tp2275
Rp2276
(dp2277
g10
g16
sbaa(lp2278
g4
(g5
g6
F40.66939389536049
tp2279
Rp2280
(dp2281
g10
g11
sbag4
(g12
g6
F-74.47587628755215
tp2282
Rp2283
(dp2284
g10
g16
sbaa(lp2285
g4
(g5
g6
F40.669393895359214
tp2286
Rp2287
(dp2288
g10
g11
sbag4
(g12
g6
F-74.47587521614093
tp2289
Rp2290
(dp2291
g10
g16
sbaa(lp2292
g4
(g5
g6
F40.66939389535793
tp2293
Rp2294
(dp2295
g10
g11
sbag4
(g12
g6
F-74.47587414472974
tp2296
Rp2297
(dp2298
g10
g16
sbaa(lp2299
g4
(g5
g6
F40.669393895356635
tp2300
Rp2301
(dp2302
g10
g11
sbag4
(g12
g6
F-74.47587307331854
tp2303
Rp2304
(dp2305
g10
g16
sbaa(lp2306
g4
(g5
g6
F40.66939389535533
tp2307
Rp2308
(dp2309
g10
g11
sbag4
(g12
g6
F-74.47587200190735
tp2310
Rp2311
(dp2312
g10
g16
sbaa(lp2313
g4
(g5
g6
F40.66939389535401
tp2314
Rp2315
(dp2316
g10
g11
sbag4
(g12
g6
F-74.47587093049617
tp2317
Rp2318
(dp2319
g10
g16
sbaa(lp2320
g4
(g5
g6
F40.66939307955465
tp2321
Rp2322
(dp2323
g10
g11
sbag4
(g12
g6
F-74.47586985908697
tp2324
Rp2325
(dp2326
g10
g16
sbaa(lp2327
g4
(g5
g6
F40.66939226375661
tp2328
Rp2329
(dp2330
g10
g11
sbag4
(g12
g6
F-74.47586985908897
tp2331
Rp2332
(dp2333
g10
g16
sbaa(lp2334
g4
(g5
g6
F40.66939144795859
tp2335
Rp2336
(dp2337
g10
g11
sbag4
(g12
g6
F-74.47586985909098
tp2338
Rp2339
(dp2340
g10
g16
sbaa(lp2341
g4
(g5
g6
F40.669390632160564
tp2342
Rp2343
(dp2344
g10
g11
sbag4
(g12
g6
F-74.475869859093
tp2345
Rp2346
(dp2347
g10
g16
sbaa(lp2348
g4
(g5
g6
F40.66938981636119
tp2349
Rp2350
(dp2351
g10
g11
sbag4
(g12
g6
F-74.47586878768394
tp2352
Rp2353
(dp2354
g10
g16
sbaa(lp2355
g4
(g5
g6
F40.66938900056184
tp2356
Rp2357
(dp2358
g10
g11
sbag4
(g12
g6
F-74.47586771627493
tp2359
Rp2360
(dp2361
g10
g16
sbaa(lp2362
g4
(g5
g6
F40.66938818476248
tp2363
Rp2364
(dp2365
g10
g11
sbag4
(g12
g6
F-74.47586664486597
tp2366
Rp2367
(dp2368
g10
g16
sbaa(lp2369
g4
(g5
g6
F40.66938818476114
tp2370
Rp2371
(dp2372
g10
g11
sbag4
(g12
g6
F-74.47586557345495
tp2373
Rp2374
(dp2375
g10
g16
sbaa(lp2376
g4
(g5
g6
F40.669388184759775
tp2377
Rp2378
(dp2379
g10
g11
sbag4
(g12
g6
F-74.47586450204392
tp2380
Rp2381
(dp2382
g10
g16
sbaa(lp2383
g4
(g5
g6
F40.66938818475841
tp2384
Rp2385
(dp2386
g10
g11
sbag4
(g12
g6
F-74.4758634306329
tp2387
Rp2388
(dp2389
g10
g16
sbaa(lp2390
g4
(g5
g6
F40.66938818475704
tp2391
Rp2392
(dp2393
g10
g11
sbag4
(g12
g6
F-74.47586235922188
tp2394
Rp2395
(dp2396
g10
g16
sbaa(lp2397
g4
(g5
g6
F40.66938736895765
tp2398
Rp2399
(dp2400
g10
g11
sbag4
(g12
g6
F-74.47586128781305
tp2401
Rp2402
(dp2403
g10
g16
sbaa(lp2404
g4
(g5
g6
F40.66938655315966
tp2405
Rp2406
(dp2407
g10
g11
sbag4
(g12
g6
F-74.47586128781526
tp2408
Rp2409
(dp2410
g10
g16
sbaa(lp2411
g4
(g5
g6
F40.669385737361665
tp2412
Rp2413
(dp2414
g10
g11
sbag4
(g12
g6
F-74.47586128781747
tp2415
Rp2416
(dp2417
g10
g16
sbaa(lp2418
g4
(g5
g6
F40.66938492156229
tp2419
Rp2420
(dp2421
g10
g11
sbag4
(g12
g6
F-74.47586021640875
tp2422
Rp2423
(dp2424
g10
g16
sbaa(lp2425
g4
(g5
g6
F40.66938410576293
tp2426
Rp2427
(dp2428
g10
g11
sbag4
(g12
g6
F-74.47585914500006
tp2429
Rp2430
(dp2431
g10
g16
sbaa(lp2432
g4
(g5
g6
F40.669383289964955
tp2433
Rp2434
(dp2435
g10
g11
sbag4
(g12
g6
F-74.47585914500233
tp2436
Rp2437
(dp2438
g10
g16
sbaa(lp2439
g4
(g5
g6
F40.66938247416698
tp2440
Rp2441
(dp2442
g10
g11
sbag4
(g12
g6
F-74.4758591450046
tp2443
Rp2444
(dp2445
g10
g16
sbaa(lp2446
g4
(g5
g6
F40.66938165836763
tp2447
Rp2448
(dp2449
g10
g11
sbag4
(g12
g6
F-74.475858073596
tp2450
Rp2451
(dp2452
g10
g16
sbaa(lp2453
g4
(g5
g6
F40.66938084256968
tp2454
Rp2455
(dp2456
g10
g11
sbag4
(g12
g6
F-74.4758580735983
tp2457
Rp2458
(dp2459
g10
g16
sbaa(lp2460
g4
(g5
g6
F40.66938002677173
tp2461
Rp2462
(dp2463
g10
g11
sbag4
(g12
g6
F-74.47585807360062
tp2464
Rp2465
(dp2466
g10
g16
sbaa(lp2467
g4
(g5
g6
F40.66937921097378
tp2468
Rp2469
(dp2470
g10
g11
sbag4
(g12
g6
F-74.47585807360294
tp2471
Rp2472
(dp2473
g10
g16
sbaa(lp2474
g4
(g5
g6
F40.66937839517585
tp2475
Rp2476
(dp2477
g10
g11
sbag4
(g12
g6
F-74.47585807360525
tp2478
Rp2479
(dp2480
g10
g16
sbaa(lp2481
g4
(g5
g6
F40.669377579377915
tp2482
Rp2483
(dp2484
g10
g11
sbag4
(g12
g6
F-74.47585807360757
tp2485
Rp2486
(dp2487
g10
g16
sbaa(lp2488
g4
(g5
g6
F40.66937676357999
tp2489
Rp2490
(dp2491
g10
g11
sbag4
(g12
g6
F-74.4758580736099
tp2492
Rp2493
(dp2494
g10
g16
sbaa(lp2495
g4
(g5
g6
F40.66937594778207
tp2496
Rp2497
(dp2498
g10
g11
sbag4
(g12
g6
F-74.47585807361223
tp2499
Rp2500
(dp2501
g10
g16
sbaa(lp2502
g4
(g5
g6
F40.66937513198416
tp2503
Rp2504
(dp2505
g10
g11
sbag4
(g12
g6
F-74.47585807361456
tp2506
Rp2507
(dp2508
g10
g16
sbaa(lp2509
g4
(g5
g6
F40.669374316186264
tp2510
Rp2511
(dp2512
g10
g11
sbag4
(g12
g6
F-74.47585807361689
tp2513
Rp2514
(dp2515
g10
g16
sbaa(lp2516
g4
(g5
g6
F40.66937350038836
tp2517
Rp2518
(dp2519
g10
g11
sbag4
(g12
g6
F-74.47585807361924
tp2520
Rp2521
(dp2522
g10
g16
sbaa(lp2523
g4
(g5
g6
F40.66937268459047
tp2524
Rp2525
(dp2526
g10
g11
sbag4
(g12
g6
F-74.47585807362158
tp2527
Rp2528
(dp2529
g10
g16
sbaa(lp2530
g4
(g5
g6
F40.66937186879259
tp2531
Rp2532
(dp2533
g10
g11
sbag4
(g12
g6
F-74.47585807362393
tp2534
Rp2535
(dp2536
g10
g16
sbaa(lp2537
g4
(g5
g6
F40.66937105299338
tp2538
Rp2539
(dp2540
g10
g11
sbag4
(g12
g6
F-74.47585700221559
tp2541
Rp2542
(dp2543
g10
g16
sbaa(lp2544
g4
(g5
g6
F40.66937105299201
tp2545
Rp2546
(dp2547
g10
g11
sbag4
(g12
g6
F-74.47585593080491
tp2548
Rp2549
(dp2550
g10
g16
sbaa(lp2551
g4
(g5
g6
F40.669370237192794
tp2552
Rp2553
(dp2554
g10
g11
sbag4
(g12
g6
F-74.47585485939662
tp2555
Rp2556
(dp2557
g10
g16
sbaa(lp2558
g4
(g5
g6
F40.66936942139495
tp2559
Rp2560
(dp2561
g10
g11
sbag4
(g12
g6
F-74.475854859399
tp2562
Rp2563
(dp2564
g10
g16
sbaa(lp2565
g4
(g5
g6
F40.669368605597114
tp2566
Rp2567
(dp2568
g10
g11
sbag4
(g12
g6
F-74.4758548594014
tp2569
Rp2570
(dp2571
g10
g16
sbaa(lp2572
g4
(g5
g6
F40.669367789797924
tp2573
Rp2574
(dp2575
g10
g11
sbag4
(g12
g6
F-74.47585378799315
tp2576
Rp2577
(dp2578
g10
g16
sbaa(lp2579
g4
(g5
g6
F40.66936697399875
tp2580
Rp2581
(dp2582
g10
g11
sbag4
(g12
g6
F-74.47585271658492
tp2583
Rp2584
(dp2585
g10
g16
sbaa(lp2586
g4
(g5
g6
F40.66936615820094
tp2587
Rp2588
(dp2589
g10
g11
sbag4
(g12
g6
F-74.47585271658734
tp2590
Rp2591
(dp2592
g10
g16
sbaa(lp2593
g4
(g5
g6
F40.66936534240315
tp2594
Rp2595
(dp2596
g10
g11
sbag4
(g12
g6
F-74.47585271658974
tp2597
Rp2598
(dp2599
g10
g16
sbaa(lp2600
g4
(g5
g6
F40.669364526605364
tp2601
Rp2602
(dp2603
g10
g11
sbag4
(g12
g6
F-74.47585271659214
tp2604
Rp2605
(dp2606
g10
g16
sbaa(lp2607
g4
(g5
g6
F40.66936371080759
tp2608
Rp2609
(dp2610
g10
g11
sbag4
(g12
g6
F-74.47585271659455
tp2611
Rp2612
(dp2613
g10
g16
sbaa(lp2614
g4
(g5
g6
F40.66936289500982
tp2615
Rp2616
(dp2617
g10
g11
sbag4
(g12
g6
F-74.47585271659693
tp2618
Rp2619
(dp2620
g10
g16
sbaa(lp2621
g4
(g5
g6
F40.669362079212064
tp2622
Rp2623
(dp2624
g10
g11
sbag4
(g12
g6
F-74.47585271659932
tp2625
Rp2626
(dp2627
g10
g16
sbaa(lp2628
g4
(g5
g6
F40.66936126341432
tp2629
Rp2630
(dp2631
g10
g11
sbag4
(g12
g6
F-74.47585271660171
tp2632
Rp2633
(dp2634
g10
g16
sbaa(lp2635
g4
(g5
g6
F40.669360447615226
tp2636
Rp2637
(dp2638
g10
g11
sbag4
(g12
g6
F-74.47585164519357
tp2639
Rp2640
(dp2641
g10
g16
sbaa(lp2642
g4
(g5
g6
F40.669359631816135
tp2643
Rp2644
(dp2645
g10
g11
sbag4
(g12
g6
F-74.47585057378544
tp2646
Rp2647
(dp2648
g10
g16
sbaa(lp2649
g4
(g5
g6
F40.66935881601977
tp2650
Rp2651
(dp2652
g10
g11
sbag4
(g12
g6
F-74.47585164519832
tp2653
Rp2654
(dp2655
g10
g16
sbaa(lp2656
g4
(g5
g6
F40.66935800022341
tp2657
Rp2658
(dp2659
g10
g11
sbag4
(g12
g6
F-74.47585271661119
tp2660
Rp2661
(dp2662
g10
g16
sbaa(lp2663
g4
(g5
g6
F40.66935718442437
tp2664
Rp2665
(dp2666
g10
g11
sbag4
(g12
g6
F-74.47585164520305
tp2667
Rp2668
(dp2669
g10
g16
sbaa(lp2670
g4
(g5
g6
F40.66935636862667
tp2671
Rp2672
(dp2673
g10
g11
sbag4
(g12
g6
F-74.47585164520541
tp2674
Rp2675
(dp2676
g10
g16
sbaa(lp2677
g4
(g5
g6
F40.669355552830325
tp2678
Rp2679
(dp2680
g10
g11
sbag4
(g12
g6
F-74.4758527166182
tp2681
Rp2682
(dp2683
g10
g16
sbaa(lp2684
g4
(g5
g6
F40.66935555283165
tp2685
Rp2686
(dp2687
g10
g11
sbag4
(g12
g6
F-74.47585378802867
tp2688
Rp2689
(dp2690
g10
g16
sbaa(lp2691
g4
(g5
g6
F40.669354737035285
tp2692
Rp2693
(dp2694
g10
g11
sbag4
(g12
g6
F-74.47585485944143
tp2695
Rp2696
(dp2697
g10
g16
sbaa(lp2698
g4
(g5
g6
F40.669353921238915
tp2699
Rp2700
(dp2701
g10
g11
sbag4
(g12
g6
F-74.47585593085415
tp2702
Rp2703
(dp2704
g10
g16
sbaa(lp2705
g4
(g5
g6
F40.66935310544125
tp2706
Rp2707
(dp2708
g10
g11
sbag4
(g12
g6
F-74.47585593085643
tp2709
Rp2710
(dp2711
g10
g16
sbaa(lp2712
g4
(g5
g6
F40.66935228964359
tp2713
Rp2714
(dp2715
g10
g11
sbag4
(g12
g6
F-74.47585593085869
tp2716
Rp2717
(dp2718
g10
g16
sbaa(lp2719
g4
(g5
g6
F40.66935147384595
tp2720
Rp2721
(dp2722
g10
g11
sbag4
(g12
g6
F-74.47585593086093
tp2723
Rp2724
(dp2725
g10
g16
sbaa(lp2726
g4
(g5
g6
F40.669350658048316
tp2727
Rp2728
(dp2729
g10
g11
sbag4
(g12
g6
F-74.47585593086318
tp2730
Rp2731
(dp2732
g10
g16
sbaa(lp2733
g4
(g5
g6
F40.66934984225196
tp2734
Rp2735
(dp2736
g10
g11
sbag4
(g12
g6
F-74.47585700227577
tp2737
Rp2738
(dp2739
g10
g16
sbaa(lp2740
g4
(g5
g6
F40.66934902645434
tp2741
Rp2742
(dp2743
g10
g11
sbag4
(g12
g6
F-74.47585700227798
tp2744
Rp2745
(dp2746
g10
g16
sbaa(lp2747
g4
(g5
g6
F40.66934821065673
tp2748
Rp2749
(dp2750
g10
g11
sbag4
(g12
g6
F-74.47585700228016
tp2751
Rp2752
(dp2753
g10
g16
sbaa(lp2754
g4
(g5
g6
F40.66934739485913
tp2755
Rp2756
(dp2757
g10
g11
sbag4
(g12
g6
F-74.47585700228232
tp2758
Rp2759
(dp2760
g10
g16
sbaa(lp2761
g4
(g5
g6
F40.6693465790628
tp2762
Rp2763
(dp2764
g10
g11
sbag4
(g12
g6
F-74.47585807369484
tp2765
Rp2766
(dp2767
g10
g16
sbaa(lp2768
g4
(g5
g6
F40.66934576326646
tp2769
Rp2770
(dp2771
g10
g11
sbag4
(g12
g6
F-74.4758591451073
tp2772
Rp2773
(dp2774
g10
g16
sbaa(lp2775
g4
(g5
g6
F40.669344947468886
tp2776
Rp2777
(dp2778
g10
g11
sbag4
(g12
g6
F-74.4758591451094
tp2779
Rp2780
(dp2781
g10
g16
sbaa(lp2782
g4
(g5
g6
F40.669344131671316
tp2783
Rp2784
(dp2785
g10
g11
sbag4
(g12
g6
F-74.47585914511149
tp2786
Rp2787
(dp2788
g10
g16
sbaa(lp2789
g4
(g5
g6
F40.669343315873746
tp2790
Rp2791
(dp2792
g10
g11
sbag4
(g12
g6
F-74.47585914511355
tp2793
Rp2794
(dp2795
g10
g16
sbaa(lp2796
g4
(g5
g6
F40.66934250007618
tp2797
Rp2798
(dp2799
g10
g11
sbag4
(g12
g6
F-74.47585914511559
tp2800
Rp2801
(dp2802
g10
g16
sbaa(lp2803
g4
(g5
g6
F40.669341684278635
tp2804
Rp2805
(dp2806
g10
g11
sbag4
(g12
g6
F-74.47585914511762
tp2807
Rp2808
(dp2809
g10
g16
sbaa(lp2810
g4
(g5
g6
F40.66934086848111
tp2811
Rp2812
(dp2813
g10
g11
sbag4
(g12
g6
F-74.47585914511964
tp2814
Rp2815
(dp2816
g10
g16
sbaa(lp2817
g4
(g5
g6
F40.66934005268355
tp2818
Rp2819
(dp2820
g10
g11
sbag4
(g12
g6
F-74.47585914512163
tp2821
Rp2822
(dp2823
g10
g16
sbaa(lp2824
g4
(g5
g6
F40.66933923688603
tp2825
Rp2826
(dp2827
g10
g11
sbag4
(g12
g6
F-74.4758591451236
tp2828
Rp2829
(dp2830
g10
g16
sbaa(lp2831
g4
(g5
g6
F40.6693384210885
tp2832
Rp2833
(dp2834
g10
g11
sbag4
(g12
g6
F-74.47585914512555
tp2835
Rp2836
(dp2837
g10
g16
sbaa(lp2838
g4
(g5
g6
F40.66933760528975
tp2839
Rp2840
(dp2841
g10
g11
sbag4
(g12
g6
F-74.47585807371725
tp2842
Rp2843
(dp2844
g10
g16
sbaa(lp2845
g4
(g5
g6
F40.66933678949098
tp2846
Rp2847
(dp2848
g10
g11
sbag4
(g12
g6
F-74.47585700230894
tp2849
Rp2850
(dp2851
g10
g16
sbaa(lp2852
g4
(g5
g6
F40.66933597369221
tp2853
Rp2854
(dp2855
g10
g11
sbag4
(g12
g6
F-74.47585593090065
tp2856
Rp2857
(dp2858
g10
g16
sbaa(lp2859
g4
(g5
g6
F40.669335157893435
tp2860
Rp2861
(dp2862
g10
g11
sbag4
(g12
g6
F-74.47585485949234
tp2863
Rp2864
(dp2865
g10
g16
sbaa(lp2866
g4
(g5
g6
F40.66933515789217
tp2867
Rp2868
(dp2869
g10
g11
sbag4
(g12
g6
F-74.47585378808215
tp2870
Rp2871
(dp2872
g10
g16
sbaa(lp2873
g4
(g5
g6
F40.66933515789087
tp2874
Rp2875
(dp2876
g10
g11
sbag4
(g12
g6
F-74.47585271667195
tp2877
Rp2878
(dp2879
g10
g16
sbaa(lp2880
g4
(g5
g6
F40.66933515788958
tp2881
Rp2882
(dp2883
g10
g11
sbag4
(g12
g6
F-74.47585164526176
tp2884
Rp2885
(dp2886
g10
g16
sbaa(lp2887
g4
(g5
g6
F40.66933434209077
tp2888
Rp2889
(dp2890
g10
g11
sbag4
(g12
g6
F-74.47585057385348
tp2891
Rp2892
(dp2893
g10
g16
sbaa(lp2894
g4
(g5
g6
F40.66933352629196
tp2895
Rp2896
(dp2897
g10
g11
sbag4
(g12
g6
F-74.47584950244521
tp2898
Rp2899
(dp2900
g10
g16
sbaa(lp2901
g4
(g5
g6
F40.669332710493144
tp2902
Rp2903
(dp2904
g10
g11
sbag4
(g12
g6
F-74.47584843103695
tp2905
Rp2906
(dp2907
g10
g16
sbaa(lp2908
g4
(g5
g6
F40.66933189469431
tp2909
Rp2910
(dp2911
g10
g11
sbag4
(g12
g6
F-74.4758473596287
tp2912
Rp2913
(dp2914
g10
g16
sbaa(lp2915
g4
(g5
g6
F40.669331078896825
tp2916
Rp2917
(dp2918
g10
g11
sbag4
(g12
g6
F-74.47584735963058
tp2919
Rp2920
(dp2921
g10
g16
sbaa(lp2922
g4
(g5
g6
F40.66933026309799
tp2923
Rp2924
(dp2925
g10
g11
sbag4
(g12
g6
F-74.47584628822231
tp2926
Rp2927
(dp2928
g10
g16
sbaa(lp2929
g4
(g5
g6
F40.66932944730051
tp2930
Rp2931
(dp2932
g10
g11
sbag4
(g12
g6
F-74.47584628822416
tp2933
Rp2934
(dp2935
g10
g16
sbaa(lp2936
g4
(g5
g6
F40.66932863150303
tp2937
Rp2938
(dp2939
g10
g11
sbag4
(g12
g6
F-74.475846288226
tp2940
Rp2941
(dp2942
g10
g16
sbaa(lp2943
g4
(g5
g6
F40.66932781570554
tp2944
Rp2945
(dp2946
g10
g11
sbag4
(g12
g6
F-74.4758462882278
tp2947
Rp2948
(dp2949
g10
g16
sbaa(lp2950
g4
(g5
g6
F40.6693269999067
tp2951
Rp2952
(dp2953
g10
g11
sbag4
(g12
g6
F-74.47584521681952
tp2954
Rp2955
(dp2956
g10
g16
sbaa(lp2957
g4
(g5
g6
F40.66932618411059
tp2958
Rp2959
(dp2960
g10
g11
sbag4
(g12
g6
F-74.47584628823135
tp2961
Rp2962
(dp2963
g10
g16
sbaa(lp2964
g4
(g5
g6
F40.669325368314446
tp2965
Rp2966
(dp2967
g10
g11
sbag4
(g12
g6
F-74.47584735964315
tp2968
Rp2969
(dp2970
g10
g16
sbaa(lp2971
g4
(g5
g6
F40.669324552518304
tp2972
Rp2973
(dp2974
g10
g11
sbag4
(g12
g6
F-74.4758484310549
tp2975
Rp2976
(dp2977
g10
g16
sbaa(lp2978
g4
(g5
g6
F40.66932373672082
tp2979
Rp2980
(dp2981
g10
g11
sbag4
(g12
g6
F-74.47584843105656
tp2982
Rp2983
(dp2984
g10
g16
sbaa(lp2985
g4
(g5
g6
F40.669322920923335
tp2986
Rp2987
(dp2988
g10
g11
sbag4
(g12
g6
F-74.47584843105821
tp2989
Rp2990
(dp2991
g10
g16
sbaa(lp2992
g4
(g5
g6
F40.66932210512585
tp2993
Rp2994
(dp2995
g10
g11
sbag4
(g12
g6
F-74.47584843105984
tp2996
Rp2997
(dp2998
g10
g16
sbaa(lp2999
g4
(g5
g6
F40.66932128932835
tp3000
Rp3001
(dp3002
g10
g11
sbag4
(g12
g6
F-74.47584843106145
tp3003
Rp3004
(dp3005
g10
g16
sbaa(lp3006
g4
(g5
g6
F40.66932047353085
tp3007
Rp3008
(dp3009
g10
g11
sbag4
(g12
g6
F-74.47584843106304
tp3010
Rp3011
(dp3012
g10
g16
sbaa(lp3013
g4
(g5
g6
F40.66931965773469
tp3014
Rp3015
(dp3016
g10
g11
sbag4
(g12
g6
F-74.47584950247456
tp3017
Rp3018
(dp3019
g10
g16
sbaa(lp3020
g4
(g5
g6
F40.66931884193851
tp3021
Rp3022
(dp3023
g10
g11
sbag4
(g12
g6
F-74.47585057388602
tp3024
Rp3025
(dp3026
g10
g16
sbaa(lp3027
g4
(g5
g6
F40.66931802614099
tp3028
Rp3029
(dp3030
g10
g11
sbag4
(g12
g6
F-74.47585057388751
tp3031
Rp3032
(dp3033
g10
g16
sbaa(lp3034
g4
(g5
g6
F40.66931721034349
tp3035
Rp3036
(dp3037
g10
g11
sbag4
(g12
g6
F-74.47585057388898
tp3038
Rp3039
(dp3040
g10
g16
sbaa(lp3041
g4
(g5
g6
F40.66931639454599
tp3042
Rp3043
(dp3044
g10
g11
sbag4
(g12
g6
F-74.47585057389044
tp3045
Rp3046
(dp3047
g10
g16
sbaa(lp3048
g4
(g5
g6
F40.669315578748474
tp3049
Rp3050
(dp3051
g10
g11
sbag4
(g12
g6
F-74.47585057389186
tp3052
Rp3053
(dp3054
g10
g16
sbaa(lp3055
g4
(g5
g6
F40.66931476295095
tp3056
Rp3057
(dp3058
g10
g11
sbag4
(g12
g6
F-74.47585057389327
tp3059
Rp3060
(dp3061
g10
g16
sbaa(lp3062
g4
(g5
g6
F40.66931394715341
tp3063
Rp3064
(dp3065
g10
g11
sbag4
(g12
g6
F-74.47585057389466
tp3066
Rp3067
(dp3068
g10
g16
sbaa(lp3069
g4
(g5
g6
F40.66931313135588
tp3070
Rp3071
(dp3072
g10
g11
sbag4
(g12
g6
F-74.47585057389604
tp3073
Rp3074
(dp3075
g10
g16
sbaa(lp3076
g4
(g5
g6
F40.66931231555834
tp3077
Rp3078
(dp3079
g10
g11
sbag4
(g12
g6
F-74.47585057389739
tp3080
Rp3081
(dp3082
g10
g16
sbaa(lp3083
g4
(g5
g6
F40.6693114997608
tp3084
Rp3085
(dp3086
g10
g11
sbag4
(g12
g6
F-74.47585057389873
tp3087
Rp3088
(dp3089
g10
g16
sbaa(lp3090
g4
(g5
g6
F40.66931068396193
tp3091
Rp3092
(dp3093
g10
g11
sbag4
(g12
g6
F-74.47584950249025
tp3094
Rp3095
(dp3096
g10
g16
sbaa(lp3097
g4
(g5
g6
F40.66930986816305
tp3098
Rp3099
(dp3100
g10
g11
sbag4
(g12
g6
F-74.4758484310818
tp3101
Rp3102
(dp3103
g10
g16
sbaa(lp3104
g4
(g5
g6
F40.669309052365485
tp3105
Rp3106
(dp3107
g10
g11
sbag4
(g12
g6
F-74.47584843108311
tp3108
Rp3109
(dp3110
g10
g16
sbaa(lp3111
g4
(g5
g6
F40.669308236567915
tp3112
Rp3113
(dp3114
g10
g11
sbag4
(g12
g6
F-74.4758484310844
tp3115
Rp3116
(dp3117
g10
g16
sbaa(lp3118
g4
(g5
g6
F40.66930742077033
tp3119
Rp3120
(dp3121
g10
g11
sbag4
(g12
g6
F-74.47584843108568
tp3122
Rp3123
(dp3124
g10
g16
sbaa(lp3125
g4
(g5
g6
F40.669306604972746
tp3126
Rp3127
(dp3128
g10
g11
sbag4
(g12
g6
F-74.47584843108694
tp3129
Rp3130
(dp3131
g10
g16
sbaa(lp3132
g4
(g5
g6
F40.669305789175155
tp3133
Rp3134
(dp3135
g10
g11
sbag4
(g12
g6
F-74.4758484310882
tp3136
Rp3137
(dp3138
g10
g16
sbaa(lp3139
g4
(g5
g6
F40.66930497337622
tp3140
Rp3141
(dp3142
g10
g11
sbag4
(g12
g6
F-74.47584735967976
tp3143
Rp3144
(dp3145
g10
g16
sbaa(lp3146
g4
(g5
g6
F40.66930415757862
tp3147
Rp3148
(dp3149
g10
g11
sbag4
(g12
g6
F-74.475847359681
tp3150
Rp3151
(dp3152
g10
g16
sbaa(lp3153
g4
(g5
g6
F40.669303341781
tp3154
Rp3155
(dp3156
g10
g11
sbag4
(g12
g6
F-74.47584735968222
tp3157
Rp3158
(dp3159
g10
g16
sbaa(lp3160
g4
(g5
g6
F40.66930252598337
tp3161
Rp3162
(dp3163
g10
g11
sbag4
(g12
g6
F-74.47584735968343
tp3164
Rp3165
(dp3166
g10
g16
sbaa(lp3167
g4
(g5
g6
F40.66930171018574
tp3168
Rp3169
(dp3170
g10
g11
sbag4
(g12
g6
F-74.47584735968462
tp3171
Rp3172
(dp3173
g10
g16
sbaa(lp3174
g4
(g5
g6
F40.669300894386765
tp3175
Rp3176
(dp3177
g10
g11
sbag4
(g12
g6
F-74.4758462882762
tp3178
Rp3179
(dp3180
g10
g16
sbaa(lp3181
g4
(g5
g6
F40.66930007858779
tp3182
Rp3183
(dp3184
g10
g11
sbag4
(g12
g6
F-74.47584521686781
tp3185
Rp3186
(dp3187
g10
g16
sbaa(lp3188
g4
(g5
g6
F40.669299262790126
tp3189
Rp3190
(dp3191
g10
g11
sbag4
(g12
g6
F-74.475845216869
tp3192
Rp3193
(dp3194
g10
g16
sbaa(lp3195
g4
(g5
g6
F40.669298446992464
tp3196
Rp3197
(dp3198
g10
g11
sbag4
(g12
g6
F-74.47584521687018
tp3199
Rp3200
(dp3201
g10
g16
sbaa(lp3202
g4
(g5
g6
F40.669297631194794
tp3203
Rp3204
(dp3205
g10
g11
sbag4
(g12
g6
F-74.47584521687136
tp3206
Rp3207
(dp3208
g10
g16
sbaa(lp3209
g4
(g5
g6
F40.66929681539711
tp3210
Rp3211
(dp3212
g10
g11
sbag4
(g12
g6
F-74.47584521687253
tp3213
Rp3214
(dp3215
g10
g16
sbaa(lp3216
g4
(g5
g6
F40.669295999600735
tp3217
Rp3218
(dp3219
g10
g11
sbag4
(g12
g6
F-74.47584628828318
tp3220
Rp3221
(dp3222
g10
g16
sbaa(lp3223
g4
(g5
g6
F40.66929518380302
tp3224
Rp3225
(dp3226
g10
g11
sbag4
(g12
g6
F-74.4758462882843
tp3227
Rp3228
(dp3229
g10
g16
sbaa(lp3230
g4
(g5
g6
F40.66929436800662
tp3231
Rp3232
(dp3233
g10
g11
sbag4
(g12
g6
F-74.4758473596949
tp3234
Rp3235
(dp3236
g10
g16
sbaa(lp3237
g4
(g5
g6
F40.66929355220889
tp3238
Rp3239
(dp3240
g10
g11
sbag4
(g12
g6
F-74.475847359696
tp3241
Rp3242
(dp3243
g10
g16
sbaa(lp3244
g4
(g5
g6
F40.66929273641115
tp3245
Rp3246
(dp3247
g10
g11
sbag4
(g12
g6
F-74.47584735969708
tp3248
Rp3249
(dp3250
g10
g16
sbaa(lp3251
g4
(g5
g6
F40.669291920613404
tp3252
Rp3253
(dp3254
g10
g11
sbag4
(g12
g6
F-74.47584735969818
tp3255
Rp3256
(dp3257
g10
g16
sbaa(lp3258
g4
(g5
g6
F40.669291104815656
tp3259
Rp3260
(dp3261
g10
g11
sbag4
(g12
g6
F-74.47584735969926
tp3262
Rp3263
(dp3264
g10
g16
sbaa(lp3265
g4
(g5
g6
F40.6692902890179
tp3266
Rp3267
(dp3268
g10
g11
sbag4
(g12
g6
F-74.47584735970032
tp3269
Rp3270
(dp3271
g10
g16
sbaa(lp3272
g4
(g5
g6
F40.669289473220125
tp3273
Rp3274
(dp3275
g10
g11
sbag4
(g12
g6
F-74.47584735970139
tp3276
Rp3277
(dp3278
g10
g16
sbaa(lp3279
g4
(g5
g6
F40.66928865742106
tp3280
Rp3281
(dp3282
g10
g11
sbag4
(g12
g6
F-74.4758462882931
tp3283
Rp3284
(dp3285
g10
g16
sbaa(lp3286
g4
(g5
g6
F40.66928784162199
tp3287
Rp3288
(dp3289
g10
g11
sbag4
(g12
g6
F-74.4758452168848
tp3290
Rp3291
(dp3292
g10
g16
sbaa(lp3293
g4
(g5
g6
F40.66928702582419
tp3294
Rp3295
(dp3296
g10
g11
sbag4
(g12
g6
F-74.4758452168859
tp3297
Rp3298
(dp3299
g10
g16
sbaa(lp3300
g4
(g5
g6
F40.669286210026385
tp3301
Rp3302
(dp3303
g10
g11
sbag4
(g12
g6
F-74.47584521688698
tp3304
Rp3305
(dp3306
g10
g16
sbaa(lp3307
g4
(g5
g6
F40.669285394228574
tp3308
Rp3309
(dp3310
g10
g11
sbag4
(g12
g6
F-74.47584521688806
tp3311
Rp3312
(dp3313
g10
g16
sbaa(lp3314
g4
(g5
g6
F40.66928457843076
tp3315
Rp3316
(dp3317
g10
g11
sbag4
(g12
g6
F-74.47584521688914
tp3318
Rp3319
(dp3320
g10
g16
sbaa(lp3321
g4
(g5
g6
F40.669283762634215
tp3322
Rp3323
(dp3324
g10
g11
sbag4
(g12
g6
F-74.4758462882995
tp3325
Rp3326
(dp3327
g10
g16
sbaa(lp3328
g4
(g5
g6
F40.66928294683636
tp3329
Rp3330
(dp3331
g10
g11
sbag4
(g12
g6
F-74.47584628830056
tp3332
Rp3333
(dp3334
g10
g16
sbaa(lp3335
g4
(g5
g6
F40.66928213103852
tp3336
Rp3337
(dp3338
g10
g11
sbag4
(g12
g6
F-74.47584628830163
tp3339
Rp3340
(dp3341
g10
g16
sbaa(lp3342
g4
(g5
g6
F40.66928131524192
tp3343
Rp3344
(dp3345
g10
g11
sbag4
(g12
g6
F-74.47584735971192
tp3346
Rp3347
(dp3348
g10
g16
sbaa(lp3349
g4
(g5
g6
F40.66928049944405
tp3350
Rp3351
(dp3352
g10
g11
sbag4
(g12
g6
F-74.47584735971297
tp3353
Rp3354
(dp3355
g10
g16
sbaa(lp3356
g4
(g5
g6
F40.669279683646174
tp3357
Rp3358
(dp3359
g10
g11
sbag4
(g12
g6
F-74.47584735971401
tp3360
Rp3361
(dp3362
g10
g16
sbaa(lp3363
g4
(g5
g6
F40.669278867849535
tp3364
Rp3365
(dp3366
g10
g11
sbag4
(g12
g6
F-74.47584843112428
tp3367
Rp3368
(dp3369
g10
g16
sbaa(lp3370
g4
(g5
g6
F40.66927805205163
tp3371
Rp3372
(dp3373
g10
g11
sbag4
(g12
g6
F-74.47584843112531
tp3374
Rp3375
(dp3376
g10
g16
sbaa(lp3377
g4
(g5
g6
F40.66927723625374
tp3378
Rp3379
(dp3380
g10
g11
sbag4
(g12
g6
F-74.47584843112635
tp3381
Rp3382
(dp3383
g10
g16
sbaa(lp3384
g4
(g5
g6
F40.66927642045582
tp3385
Rp3386
(dp3387
g10
g11
sbag4
(g12
g6
F-74.47584843112739
tp3388
Rp3389
(dp3390
g10
g16
sbaa(lp3391
g4
(g5
g6
F40.66927560465791
tp3392
Rp3393
(dp3394
g10
g11
sbag4
(g12
g6
F-74.47584843112843
tp3395
Rp3396
(dp3397
g10
g16
sbaa(lp3398
g4
(g5
g6
F40.66927478886119
tp3399
Rp3400
(dp3401
g10
g11
sbag4
(g12
g6
F-74.47584950253862
tp3402
Rp3403
(dp3404
g10
g16
sbaa(lp3405
g4
(g5
g6
F40.66927478886239
tp3406
Rp3407
(dp3408
g10
g11
sbag4
(g12
g6
F-74.47585057394777
tp3409
Rp3410
(dp3411
g10
g16
sbaa(lp3412
g4
(g5
g6
F40.66927478886356
tp3413
Rp3414
(dp3415
g10
g11
sbag4
(g12
g6
F-74.47585164535693
tp3416
Rp3417
(dp3418
g10
g16
sbaa(lp3419
g4
(g5
g6
F40.66927478886474
tp3420
Rp3421
(dp3422
g10
g11
sbag4
(g12
g6
F-74.47585271676607
tp3423
Rp3424
(dp3425
g10
g16
sbaa(lp3426
g4
(g5
g6
F40.669273973067945
tp3427
Rp3428
(dp3429
g10
g11
sbag4
(g12
g6
F-74.47585378817621
tp3430
Rp3431
(dp3432
g10
g16
sbaa(lp3433
g4
(g5
g6
F40.669273157271135
tp3434
Rp3435
(dp3436
g10
g11
sbag4
(g12
g6
F-74.47585485958635
tp3437
Rp3438
(dp3439
g10
g16
sbaa(lp3440
g4
(g5
g6
F40.669272341474304
tp3441
Rp3442
(dp3443
g10
g11
sbag4
(g12
g6
F-74.47585593099646
tp3444
Rp3445
(dp3446
g10
g16
sbaa(lp3447
g4
(g5
g6
F40.669271525676336
tp3448
Rp3449
(dp3450
g10
g11
sbag4
(g12
g6
F-74.47585593099744
tp3451
Rp3452
(dp3453
g10
g16
sbaa(lp3454
g4
(g5
g6
F40.66927070987836
tp3455
Rp3456
(dp3457
g10
g11
sbag4
(g12
g6
F-74.47585593099843
tp3458
Rp3459
(dp3460
g10
g16
sbaa(lp3461
g4
(g5
g6
F40.66926989408037
tp3462
Rp3463
(dp3464
g10
g11
sbag4
(g12
g6
F-74.47585593099944
tp3465
Rp3466
(dp3467
g10
g16
sbaa(lp3468
g4
(g5
g6
F40.66926907828238
tp3469
Rp3470
(dp3471
g10
g11
sbag4
(g12
g6
F-74.47585593100044
tp3472
Rp3473
(dp3474
g10
g16
sbaa(lp3475
g4
(g5
g6
F40.669268262484394
tp3476
Rp3477
(dp3478
g10
g11
sbag4
(g12
g6
F-74.47585593100146
tp3479
Rp3480
(dp3481
g10
g16
sbaa(lp3482
g4
(g5
g6
F40.66926744668639
tp3483
Rp3484
(dp3485
g10
g11
sbag4
(g12
g6
F-74.47585593100247
tp3486
Rp3487
(dp3488
g10
g16
sbaa(lp3489
g4
(g5
g6
F40.669266630887286
tp3490
Rp3491
(dp3492
g10
g11
sbag4
(g12
g6
F-74.47585485959445
tp3493
Rp3494
(dp3495
g10
g16
sbaa(lp3496
g4
(g5
g6
F40.66926581508816
tp3497
Rp3498
(dp3499
g10
g11
sbag4
(g12
g6
F-74.47585378818644
tp3500
Rp3501
(dp3502
g10
g16
sbaa(lp3503
g4
(g5
g6
F40.66926499929016
tp3504
Rp3505
(dp3506
g10
g11
sbag4
(g12
g6
F-74.47585378818751
tp3507
Rp3508
(dp3509
g10
g16
sbaa(lp3510
g4
(g5
g6
F40.66926418349102
tp3511
Rp3512
(dp3513
g10
g11
sbag4
(g12
g6
F-74.47585271677954
tp3514
Rp3515
(dp3516
g10
g16
sbaa(lp3517
g4
(g5
g6
F40.66926336769301
tp3518
Rp3519
(dp3520
g10
g11
sbag4
(g12
g6
F-74.47585271678062
tp3521
Rp3522
(dp3523
g10
g16
sbaa(lp3524
g4
(g5
g6
F40.66926255189387
tp3525
Rp3526
(dp3527
g10
g11
sbag4
(g12
g6
F-74.47585164537271
tp3528
Rp3529
(dp3530
g10
g16
sbaa(lp3531
g4
(g5
g6
F40.66926173609585
tp3532
Rp3533
(dp3534
g10
g11
sbag4
(g12
g6
F-74.47585164537381
tp3535
Rp3536
(dp3537
g10
g16
sbaa(lp3538
g4
(g5
g6
F40.66926092029782
tp3539
Rp3540
(dp3541
g10
g11
sbag4
(g12
g6
F-74.47585164537492
tp3542
Rp3543
(dp3544
g10
g16
sbaa(lp3545
g4
(g5
g6
F40.6692601044998
tp3546
Rp3547
(dp3548
g10
g11
sbag4
(g12
g6
F-74.47585164537604
tp3549
Rp3550
(dp3551
g10
g16
sbaa(lp3552
g4
(g5
g6
F40.669259288701774
tp3553
Rp3554
(dp3555
g10
g11
sbag4
(g12
g6
F-74.47585164537716
tp3556
Rp3557
(dp3558
g10
g16
sbaa(lp3559
g4
(g5
g6
F40.669258472903735
tp3560
Rp3561
(dp3562
g10
g11
sbag4
(g12
g6
F-74.4758516453783
tp3563
Rp3564
(dp3565
g10
g16
sbaa(lp3566
g4
(g5
g6
F40.669257657105696
tp3567
Rp3568
(dp3569
g10
g11
sbag4
(g12
g6
F-74.47585164537944
tp3570
Rp3571
(dp3572
g10
g16
sbaa(lp3573
g4
(g5
g6
F40.66925684130766
tp3574
Rp3575
(dp3576
g10
g11
sbag4
(g12
g6
F-74.47585164538057
tp3577
Rp3578
(dp3579
g10
g16
sbaa(lp3580
g4
(g5
g6
F40.66925602551074
tp3581
Rp3582
(dp3583
g10
g11
sbag4
(g12
g6
F-74.47585271679067
tp3584
Rp3585
(dp3586
g10
g16
sbaa(lp3587
g4
(g5
g6
F40.66925520971268
tp3588
Rp3589
(dp3590
g10
g11
sbag4
(g12
g6
F-74.47585271679182
tp3591
Rp3592
(dp3593
g10
g16
sbaa(lp3594
g4
(g5
g6
F40.66925439391464
tp3595
Rp3596
(dp3597
g10
g11
sbag4
(g12
g6
F-74.47585271679299
tp3598
Rp3599
(dp3600
g10
g16
sbaa(lp3601
g4
(g5
g6
F40.669253578117676
tp3602
Rp3603
(dp3604
g10
g11
sbag4
(g12
g6
F-74.47585378820307
tp3605
Rp3606
(dp3607
g10
g16
sbaa(lp3608
g4
(g5
g6
F40.66925276231963
tp3609
Rp3610
(dp3611
g10
g11
sbag4
(g12
g6
F-74.47585378820423
tp3612
Rp3613
(dp3614
g10
g16
sbaa(lp3615
g4
(g5
g6
F40.66925194652157
tp3616
Rp3617
(dp3618
g10
g11
sbag4
(g12
g6
F-74.47585378820541
tp3619
Rp3620
(dp3621
g10
g16
sbaa(lp3622
g4
(g5
g6
F40.6692511307246
tp3623
Rp3624
(dp3625
g10
g11
sbag4
(g12
g6
F-74.4758548596155
tp3626
Rp3627
(dp3628
g10
g16
sbaa(lp3629
g4
(g5
g6
F40.66925031492761
tp3630
Rp3631
(dp3632
g10
g11
sbag4
(g12
g6
F-74.47585593102558
tp3633
Rp3634
(dp3635
g10
g16
sbaa(lp3636
g4
(g5
g6
F40.66924949912954
tp3637
Rp3638
(dp3639
g10
g11
sbag4
(g12
g6
F-74.47585593102677
tp3640
Rp3641
(dp3642
g10
g16
sbaa(lp3643
g4
(g5
g6
F40.66924868333148
tp3644
Rp3645
(dp3646
g10
g11
sbag4
(g12
g6
F-74.47585593102797
tp3647
Rp3648
(dp3649
g10
g16
sbaa(lp3650
g4
(g5
g6
F40.66924786753447
tp3651
Rp3652
(dp3653
g10
g11
sbag4
(g12
g6
F-74.47585700243805
tp3654
Rp3655
(dp3656
g10
g16
sbaa(lp3657
g4
(g5
g6
F40.66924705173746
tp3658
Rp3659
(dp3660
g10
g11
sbag4
(g12
g6
F-74.47585807384813
tp3661
Rp3662
(dp3663
g10
g16
sbaa(lp3664
g4
(g5
g6
F40.66924623593939
tp3665
Rp3666
(dp3667
g10
g11
sbag4
(g12
g6
F-74.47585807384934
tp3668
Rp3669
(dp3670
g10
g16
sbaa(lp3671
g4
(g5
g6
F40.66924542014236
tp3672
Rp3673
(dp3674
g10
g11
sbag4
(g12
g6
F-74.47585914525942
tp3675
Rp3676
(dp3677
g10
g16
sbaa(lp3678
g4
(g5
g6
F40.66924460434429
tp3679
Rp3680
(dp3681
g10
g11
sbag4
(g12
g6
F-74.47585914526064
tp3682
Rp3683
(dp3684
g10
g16
sbaa(lp3685
g4
(g5
g6
F40.66924378854623
tp3686
Rp3687
(dp3688
g10
g11
sbag4
(g12
g6
F-74.47585914526186
tp3689
Rp3690
(dp3691
g10
g16
sbaa(lp3692
g4
(g5
g6
F40.66924297274815
tp3693
Rp3694
(dp3695
g10
g11
sbag4
(g12
g6
F-74.4758591452631
tp3696
Rp3697
(dp3698
g10
g16
sbaa(lp3699
g4
(g5
g6
F40.6692421569501
tp3700
Rp3701
(dp3702
g10
g11
sbag4
(g12
g6
F-74.47585914526434
tp3703
Rp3704
(dp3705
g10
g16
sbaa(lp3706
g4
(g5
g6
F40.66924134115099
tp3707
Rp3708
(dp3709
g10
g11
sbag4
(g12
g6
F-74.47585807385676
tp3710
Rp3711
(dp3712
g10
g16
sbaa(lp3713
g4
(g5
g6
F40.66924134114994
tp3714
Rp3715
(dp3716
g10
g11
sbag4
(g12
g6
F-74.47585700244792
tp3717
Rp3718
(dp3719
g10
g16
sbaa(lp3720
g4
(g5
g6
F40.669240525350816
tp3721
Rp3722
(dp3723
g10
g11
sbag4
(g12
g6
F-74.47585593104037
tp3724
Rp3725
(dp3726
g10
g16
sbaa(lp3727
g4
(g5
g6
F40.66923970955275
tp3728
Rp3729
(dp3730
g10
g11
sbag4
(g12
g6
F-74.47585593104166
tp3731
Rp3732
(dp3733
g10
g16
sbaa(lp3734
g4
(g5
g6
F40.669238893753615
tp3735
Rp3736
(dp3737
g10
g11
sbag4
(g12
g6
F-74.47585485963415
tp3738
Rp3739
(dp3740
g10
g16
sbaa(lp3741
g4
(g5
g6
F40.66923807795447
tp3742
Rp3743
(dp3744
g10
g11
sbag4
(g12
g6
F-74.47585378822667
tp3745
Rp3746
(dp3747
g10
g16
sbaa(lp3748
g4
(g5
g6
F40.66923807795338
tp3749
Rp3750
(dp3751
g10
g11
sbag4
(g12
g6
F-74.47585271681788
tp3752
Rp3753
(dp3754
g10
g16
sbaa(lp3755
g4
(g5
g6
F40.669238077952286
tp3756
Rp3757
(dp3758
g10
g11
sbag4
(g12
g6
F-74.47585164540911
tp3759
Rp3760
(dp3761
g10
g16
sbaa(lp3762
g4
(g5
g6
F40.66923726215311
tp3763
Rp3764
(dp3765
g10
g11
sbag4
(g12
g6
F-74.47585057400168
tp3766
Rp3767
(dp3768
g10
g16
sbaa(lp3769
g4
(g5
g6
F40.66923644635393
tp3770
Rp3771
(dp3772
g10
g11
sbag4
(g12
g6
F-74.47584950259427
tp3773
Rp3774
(dp3775
g10
g16
sbaa(lp3776
g4
(g5
g6
F40.66923563055474
tp3777
Rp3778
(dp3779
g10
g11
sbag4
(g12
g6
F-74.4758484311869
tp3780
Rp3781
(dp3782
g10
g16
sbaa(lp3783
g4
(g5
g6
F40.66923481475666
tp3784
Rp3785
(dp3786
g10
g11
sbag4
(g12
g6
F-74.47584843118827
tp3787
Rp3788
(dp3789
g10
g16
sbaa(lp3790
g4
(g5
g6
F40.6692339989586
tp3791
Rp3792
(dp3793
g10
g11
sbag4
(g12
g6
F-74.47584843118966
tp3794
Rp3795
(dp3796
g10
g16
sbaa(lp3797
g4
(g5
g6
F40.66923318315939
tp3798
Rp3799
(dp3800
g10
g11
sbag4
(g12
g6
F-74.47584735978234
tp3801
Rp3802
(dp3803
g10
g16
sbaa(lp3804
g4
(g5
g6
F40.66923236736018
tp3805
Rp3806
(dp3807
g10
g11
sbag4
(g12
g6
F-74.47584628837504
tp3808
Rp3809
(dp3810
g10
g16
sbaa(lp3811
g4
(g5
g6
F40.669231551560955
tp3812
Rp3813
(dp3814
g10
g11
sbag4
(g12
g6
F-74.47584521696777
tp3815
Rp3816
(dp3817
g10
g16
sbaa(lp3818
g4
(g5
g6
F40.66923073576288
tp3819
Rp3820
(dp3821
g10
g11
sbag4
(g12
g6
F-74.4758452169692
tp3822
Rp3823
(dp3824
g10
g16
sbaa(lp3825
g4
(g5
g6
F40.66922991996482
tp3826
Rp3827
(dp3828
g10
g11
sbag4
(g12
g6
F-74.47584521697064
tp3829
Rp3830
(dp3831
g10
g16
sbaa(lp3832
g4
(g5
g6
F40.669229104166746
tp3833
Rp3834
(dp3835
g10
g11
sbag4
(g12
g6
F-74.47584521697209
tp3836
Rp3837
(dp3838
g10
g16
sbaa(lp3839
g4
(g5
g6
F40.66922828836753
tp3840
Rp3841
(dp3842
g10
g11
sbag4
(g12
g6
F-74.47584414556488
tp3843
Rp3844
(dp3845
g10
g16
sbaa(lp3846
g4
(g5
g6
F40.66922747256828
tp3847
Rp3848
(dp3849
g10
g11
sbag4
(g12
g6
F-74.47584307415771
tp3850
Rp3851
(dp3852
g10
g16
sbaa(lp3853
g4
(g5
g6
F40.66922665676903
tp3854
Rp3855
(dp3856
g10
g11
sbag4
(g12
g6
F-74.47584200275055
tp3857
Rp3858
(dp3859
g10
g16
sbaa(lp3860
g4
(g5
g6
F40.66922584097097
tp3861
Rp3862
(dp3863
g10
g11
sbag4
(g12
g6
F-74.47584200275205
tp3864
Rp3865
(dp3866
g10
g16
sbaa(lp3867
g4
(g5
g6
F40.66922502517289
tp3868
Rp3869
(dp3870
g10
g11
sbag4
(g12
g6
F-74.47584200275355
tp3871
Rp3872
(dp3873
g10
g16
sbaa(lp3874
g4
(g5
g6
F40.669224209373624
tp3875
Rp3876
(dp3877
g10
g11
sbag4
(g12
g6
F-74.47584093134645
tp3878
Rp3879
(dp3880
g10
g16
sbaa(lp3881
g4
(g5
g6
F40.66922339357435
tp3882
Rp3883
(dp3884
g10
g11
sbag4
(g12
g6
F-74.47583985993938
tp3885
Rp3886
(dp3887
g10
g16
sbaa(lp3888
g4
(g5
g6
F40.669222577775066
tp3889
Rp3890
(dp3891
g10
g11
sbag4
(g12
g6
F-74.47583878853234
tp3892
Rp3893
(dp3894
g10
g16
sbaa(lp3895
g4
(g5
g6
F40.66922176197576
tp3896
Rp3897
(dp3898
g10
g11
sbag4
(g12
g6
F-74.47583771712532
tp3899
Rp3900
(dp3901
g10
g16
sbaa(lp3902
g4
(g5
g6
F40.669220946176466
tp3903
Rp3904
(dp3905
g10
g11
sbag4
(g12
g6
F-74.47583664571833
tp3906
Rp3907
(dp3908
g10
g16
sbaa(lp3909
g4
(g5
g6
F40.6692201303784
tp3910
Rp3911
(dp3912
g10
g11
sbag4
(g12
g6
F-74.47583664571991
tp3913
Rp3914
(dp3915
g10
g16
sbaa(lp3916
g4
(g5
g6
F40.66921931458034
tp3917
Rp3918
(dp3919
g10
g11
sbag4
(g12
g6
F-74.47583664572149
tp3920
Rp3921
(dp3922
g10
g16
sbaa(lp3923
g4
(g5
g6
F40.66921849878228
tp3924
Rp3925
(dp3926
g10
g11
sbag4
(g12
g6
F-74.47583664572308
tp3927
Rp3928
(dp3929
g10
g16
sbaa(lp3930
g4
(g5
g6
F40.66921768298296
tp3931
Rp3932
(dp3933
g10
g11
sbag4
(g12
g6
F-74.47583557431615
tp3934
Rp3935
(dp3936
g10
g16
sbaa(lp3937
g4
(g5
g6
F40.66921686718491
tp3938
Rp3939
(dp3940
g10
g11
sbag4
(g12
g6
F-74.47583557431776
tp3941
Rp3942
(dp3943
g10
g16
sbaa(lp3944
g4
(g5
g6
F40.66921605138683
tp3945
Rp3946
(dp3947
g10
g11
sbag4
(g12
g6
F-74.47583557431936
tp3948
Rp3949
(dp3950
g10
g16
sbaa(lp3951
g4
(g5
g6
F40.66921523558878
tp3952
Rp3953
(dp3954
g10
g11
sbag4
(g12
g6
F-74.47583557432098
tp3955
Rp3956
(dp3957
g10
g16
sbaa(lp3958
g4
(g5
g6
F40.66921441979072
tp3959
Rp3960
(dp3961
g10
g11
sbag4
(g12
g6
F-74.47583557432262
tp3962
Rp3963
(dp3964
g10
g16
sbaa(lp3965
g4
(g5
g6
F40.66921360399267
tp3966
Rp3967
(dp3968
g10
g11
sbag4
(g12
g6
F-74.47583557432424
tp3969
Rp3970
(dp3971
g10
g16
sbaa(lp3972
g4
(g5
g6
F40.669212788195864
tp3973
Rp3974
(dp3975
g10
g11
sbag4
(g12
g6
F-74.47583664573435
tp3976
Rp3977
(dp3978
g10
g16
sbaa(lp3979
g4
(g5
g6
F40.66921197239781
tp3980
Rp3981
(dp3982
g10
g11
sbag4
(g12
g6
F-74.47583664573598
tp3983
Rp3984
(dp3985
g10
g16
sbaa(lp3986
g4
(g5
g6
F40.669211156601015
tp3987
Rp3988
(dp3989
g10
g11
sbag4
(g12
g6
F-74.47583771714609
tp3990
Rp3991
(dp3992
g10
g16
sbaa(lp3993
g4
(g5
g6
F40.669210340802955
tp3994
Rp3995
(dp3996
g10
g11
sbag4
(g12
g6
F-74.47583771714773
tp3997
Rp3998
(dp3999
g10
g16
sbaa(lp4000
g4
(g5
g6
F40.66920952500491
tp4001
Rp4002
(dp4003
g10
g11
sbag4
(g12
g6
F-74.47583771714936
tp4004
Rp4005
(dp4006
g10
g16
sbaa(lp4007
g4
(g5
g6
F40.66920870920561
tp4008
Rp4009
(dp4010
g10
g11
sbag4
(g12
g6
F-74.47583664574258
tp4011
Rp4012
(dp4013
g10
g16
sbaa(lp4014
g4
(g5
g6
F40.6692078934063
tp4015
Rp4016
(dp4017
g10
g11
sbag4
(g12
g6
F-74.4758355743358
tp4018
Rp4019
(dp4020
g10
g16
sbaa(lp4021
g4
(g5
g6
F40.66920707760951
tp4022
Rp4023
(dp4024
g10
g11
sbag4
(g12
g6
F-74.4758366457459
tp4025
Rp4026
(dp4027
g10
g16
sbaa(lp4028
g4
(g5
g6
F40.669206261811475
tp4029
Rp4030
(dp4031
g10
g11
sbag4
(g12
g6
F-74.47583664574756
tp4032
Rp4033
(dp4034
g10
g16
sbaa(lp4035
g4
(g5
g6
F40.66920544601342
tp4036
Rp4037
(dp4038
g10
g11
sbag4
(g12
g6
F-74.47583664574924
tp4039
Rp4040
(dp4041
g10
g16
sbaa(lp4042
g4
(g5
g6
F40.66920463021537
tp4043
Rp4044
(dp4045
g10
g11
sbag4
(g12
g6
F-74.47583664575092
tp4046
Rp4047
(dp4048
g10
g16
sbaa(lp4049
g4
(g5
g6
F40.66920381441734
tp4050
Rp4051
(dp4052
g10
g11
sbag4
(g12
g6
F-74.47583664575261
tp4053
Rp4054
(dp4055
g10
g16
sbaa(lp4056
g4
(g5
g6
F40.669202998619305
tp4057
Rp4058
(dp4059
g10
g11
sbag4
(g12
g6
F-74.4758366457543
tp4060
Rp4061
(dp4062
g10
g16
sbaa(lp4063
g4
(g5
g6
F40.66920218282126
tp4064
Rp4065
(dp4066
g10
g11
sbag4
(g12
g6
F-74.47583664575599
tp4067
Rp4068
(dp4069
g10
g16
sbaa(lp4070
g4
(g5
g6
F40.66920136702322
tp4071
Rp4072
(dp4073
g10
g11
sbag4
(g12
g6
F-74.47583664575768
tp4074
Rp4075
(dp4076
g10
g16
sbaa(lp4077
g4
(g5
g6
F40.66920055122518
tp4078
Rp4079
(dp4080
g10
g11
sbag4
(g12
g6
F-74.47583664575939
tp4081
Rp4082
(dp4083
g10
g16
sbaa(lp4084
g4
(g5
g6
F40.669199735427156
tp4085
Rp4086
(dp4087
g10
g11
sbag4
(g12
g6
F-74.47583664576109
tp4088
Rp4089
(dp4090
g10
g16
sbaa(lp4091
g4
(g5
g6
F40.669198919629125
tp4092
Rp4093
(dp4094
g10
g11
sbag4
(g12
g6
F-74.47583664576281
tp4095
Rp4096
(dp4097
g10
g16
sbaa(lp4098
g4
(g5
g6
F40.669198103832365
tp4099
Rp4100
(dp4101
g10
g11
sbag4
(g12
g6
F-74.47583771717285
tp4102
Rp4103
(dp4104
g10
g16
sbaa(lp4105
g4
(g5
g6
F40.66919728803434
tp4106
Rp4107
(dp4108
g10
g11
sbag4
(g12
g6
F-74.47583771717457
tp4109
Rp4110
(dp4111
g10
g16
sbaa(lp4112
g4
(g5
g6
F40.66919647223758
tp4113
Rp4114
(dp4115
g10
g11
sbag4
(g12
g6
F-74.4758387885846
tp4116
Rp4117
(dp4118
g10
g16
sbaa(lp4119
g4
(g5
g6
F40.66919565643956
tp4120
Rp4121
(dp4122
g10
g11
sbag4
(g12
g6
F-74.47583878858632
tp4123
Rp4124
(dp4125
g10
g16
sbaa(lp4126
g4
(g5
g6
F40.66919484064155
tp4127
Rp4128
(dp4129
g10
g11
sbag4
(g12
g6
F-74.47583878858804
tp4130
Rp4131
(dp4132
g10
g16
sbaa(lp4133
g4
(g5
g6
F40.669194024844806
tp4134
Rp4135
(dp4136
g10
g11
sbag4
(g12
g6
F-74.47583985999805
tp4137
Rp4138
(dp4139
g10
g16
sbaa(lp4140
g4
(g5
g6
F40.66919320904804
tp4141
Rp4142
(dp4143
g10
g11
sbag4
(g12
g6
F-74.47584093140806
tp4144
Rp4145
(dp4146
g10
g16
sbaa(lp4147
g4
(g5
g6
F40.66919239325129
tp4148
Rp4149
(dp4150
g10
g11
sbag4
(g12
g6
F-74.47584200281806
tp4151
Rp4152
(dp4153
g10
g16
sbaa(lp4154
g4
(g5
g6
F40.66919157745454
tp4155
Rp4156
(dp4157
g10
g11
sbag4
(g12
g6
F-74.47584307422804
tp4158
Rp4159
(dp4160
g10
g16
sbaa(lp4161
g4
(g5
g6
F40.669190761656544
tp4162
Rp4163
(dp4164
g10
g11
sbag4
(g12
g6
F-74.47584307422974
tp4165
Rp4166
(dp4167
g10
g16
sbaa(lp4168
g4
(g5
g6
F40.66918994585853
tp4169
Rp4170
(dp4171
g10
g11
sbag4
(g12
g6
F-74.47584307423143
tp4172
Rp4173
(dp4174
g10
g16
sbaa(lp4175
g4
(g5
g6
F40.66918913006054
tp4176
Rp4177
(dp4178
g10
g11
sbag4
(g12
g6
F-74.47584307423314
tp4179
Rp4180
(dp4181
g10
g16
sbaa(lp4182
g4
(g5
g6
F40.66918831426254
tp4183
Rp4184
(dp4185
g10
g11
sbag4
(g12
g6
F-74.47584307423485
tp4186
Rp4187
(dp4188
g10
g16
sbaa(lp4189
g4
(g5
g6
F40.66918749846453
tp4190
Rp4191
(dp4192
g10
g11
sbag4
(g12
g6
F-74.47584307423656
tp4193
Rp4194
(dp4195
g10
g16
sbaa(lp4196
g4
(g5
g6
F40.66918668266527
tp4197
Rp4198
(dp4199
g10
g11
sbag4
(g12
g6
F-74.47584200283003
tp4200
Rp4201
(dp4202
g10
g16
sbaa(lp4203
g4
(g5
g6
F40.66918586686599
tp4204
Rp4205
(dp4206
g10
g11
sbag4
(g12
g6
F-74.47584093142355
tp4207
Rp4208
(dp4209
g10
g16
sbaa(lp4210
g4
(g5
g6
F40.669185051068
tp4211
Rp4212
(dp4213
g10
g11
sbag4
(g12
g6
F-74.47584093142528
tp4214
Rp4215
(dp4216
g10
g16
sbaa(lp4217
g4
(g5
g6
F40.66918423527
tp4218
Rp4219
(dp4220
g10
g11
sbag4
(g12
g6
F-74.47584093142703
tp4221
Rp4222
(dp4223
g10
g16
sbaa(lp4224
g4
(g5
g6
F40.669183419472
tp4225
Rp4226
(dp4227
g10
g11
sbag4
(g12
g6
F-74.47584093142878
tp4228
Rp4229
(dp4230
g10
g16
sbaa(lp4231
g4
(g5
g6
F40.66918260367401
tp4232
Rp4233
(dp4234
g10
g11
sbag4
(g12
g6
F-74.47584093143051
tp4235
Rp4236
(dp4237
g10
g16
sbaa(lp4238
g4
(g5
g6
F40.66918178787601
tp4239
Rp4240
(dp4241
g10
g11
sbag4
(g12
g6
F-74.47584093143227
tp4242
Rp4243
(dp4244
g10
g16
sbaa(lp4245
g4
(g5
g6
F40.669180972078024
tp4246
Rp4247
(dp4248
g10
g11
sbag4
(g12
g6
F-74.47584093143402
tp4249
Rp4250
(dp4251
g10
g16
sbaa(lp4252
g4
(g5
g6
F40.669180156280035
tp4253
Rp4254
(dp4255
g10
g11
sbag4
(g12
g6
F-74.47584093143577
tp4256
Rp4257
(dp4258
g10
g16
sbaa(lp4259
g4
(g5
g6
F40.669179340482046
tp4260
Rp4261
(dp4262
g10
g11
sbag4
(g12
g6
F-74.47584093143753
tp4263
Rp4264
(dp4265
g10
g16
sbaa(lp4266
g4
(g5
g6
F40.669178524684064
tp4267
Rp4268
(dp4269
g10
g11
sbag4
(g12
g6
F-74.4758409314393
tp4270
Rp4271
(dp4272
g10
g16
sbaa(lp4273
g4
(g5
g6
F40.669177708886075
tp4274
Rp4275
(dp4276
g10
g11
sbag4
(g12
g6
F-74.47584093144106
tp4277
Rp4278
(dp4279
g10
g16
sbaa(lp4280
g4
(g5
g6
F40.6691768930881
tp4281
Rp4282
(dp4283
g10
g11
sbag4
(g12
g6
F-74.47584093144282
tp4284
Rp4285
(dp4286
g10
g16
sbaa(lp4287
g4
(g5
g6
F40.66917607729142
tp4288
Rp4289
(dp4290
g10
g11
sbag4
(g12
g6
F-74.47584200285269
tp4291
Rp4292
(dp4293
g10
g16
sbaa(lp4294
g4
(g5
g6
F40.66917526149345
tp4295
Rp4296
(dp4297
g10
g11
sbag4
(g12
g6
F-74.47584200285445
tp4298
Rp4299
(dp4300
g10
g16
sbaa(lp4301
g4
(g5
g6
F40.66917444569547
tp4302
Rp4303
(dp4304
g10
g11
sbag4
(g12
g6
F-74.47584200285621
tp4305
Rp4306
(dp4307
g10
g16
sbaa(lp4308
g4
(g5
g6
F40.669173629896186
tp4309
Rp4310
(dp4311
g10
g11
sbag4
(g12
g6
F-74.47584093144991
tp4312
Rp4313
(dp4314
g10
g16
sbaa(lp4315
g4
(g5
g6
F40.66917281409821
tp4316
Rp4317
(dp4318
g10
g11
sbag4
(g12
g6
F-74.47584093145169
tp4319
Rp4320
(dp4321
g10
g16
sbaa(lp4322
g4
(g5
g6
F40.66917199830024
tp4323
Rp4324
(dp4325
g10
g11
sbag4
(g12
g6
F-74.47584093145346
tp4326
Rp4327
(dp4328
g10
g16
sbaa(lp4329
g4
(g5
g6
F40.66917118250226
tp4330
Rp4331
(dp4332
g10
g11
sbag4
(g12
g6
F-74.47584093145524
tp4333
Rp4334
(dp4335
g10
g16
sbaa(lp4336
g4
(g5
g6
F40.66917036670561
tp4337
Rp4338
(dp4339
g10
g11
sbag4
(g12
g6
F-74.47584200286505
tp4340
Rp4341
(dp4342
g10
g16
sbaa(lp4343
g4
(g5
g6
F40.669169550908954
tp4344
Rp4345
(dp4346
g10
g11
sbag4
(g12
g6
F-74.47584307427485
tp4347
Rp4348
(dp4349
g10
g16
sbaa(lp4350
g4
(g5
g6
F40.66916873511099
tp4351
Rp4352
(dp4353
g10
g11
sbag4
(g12
g6
F-74.47584307427663
tp4354
Rp4355
(dp4356
g10
g16
sbaa(lp4357
g4
(g5
g6
F40.669167919313026
tp4358
Rp4359
(dp4360
g10
g11
sbag4
(g12
g6
F-74.47584307427839
tp4361
Rp4362
(dp4363
g10
g16
sbaa(lp4364
g4
(g5
g6
F40.669167103515065
tp4365
Rp4366
(dp4367
g10
g11
sbag4
(g12
g6
F-74.47584307428016
tp4368
Rp4369
(dp4370
g10
g16
sbaa(lp4371
g4
(g5
g6
F40.669166287717104
tp4372
Rp4373
(dp4374
g10
g11
sbag4
(g12
g6
F-74.47584307428193
tp4375
Rp4376
(dp4377
g10
g16
sbaa(lp4378
g4
(g5
g6
F40.669165471920465
tp4379
Rp4380
(dp4381
g10
g11
sbag4
(g12
g6
F-74.47584414569168
tp4382
Rp4383
(dp4384
g10
g16
sbaa(lp4385
g4
(g5
g6
F40.669164656123826
tp4386
Rp4387
(dp4388
g10
g11
sbag4
(g12
g6
F-74.47584521710141
tp4389
Rp4390
(dp4391
g10
g16
sbaa(lp4392
g4
(g5
g6
F40.669163840325865
tp4393
Rp4394
(dp4395
g10
g11
sbag4
(g12
g6
F-74.47584521710317
tp4396
Rp4397
(dp4398
g10
g16
sbaa(lp4399
g4
(g5
g6
F40.6691630245266
tp4400
Rp4401
(dp4402
g10
g11
sbag4
(g12
g6
F-74.47584414569698
tp4403
Rp4404
(dp4405
g10
g16
sbaa(lp4406
g4
(g5
g6
F40.66916302452528
tp4407
Rp4408
(dp4409
g10
g11
sbag4
(g12
g6
F-74.47584307428903
tp4410
Rp4411
(dp4412
g10
g16
sbaa(lp4413
g4
(g5
g6
F40.66916220872599
tp4414
Rp4415
(dp4416
g10
g11
sbag4
(g12
g6
F-74.47584200288289
tp4417
Rp4418
(dp4419
g10
g16
sbaa(lp4420
g4
(g5
g6
F40.66916139292804
tp4421
Rp4422
(dp4423
g10
g11
sbag4
(g12
g6
F-74.47584200288468
tp4424
Rp4425
(dp4426
g10
g16
sbaa(lp4427
g4
(g5
g6
F40.669160577130086
tp4428
Rp4429
(dp4430
g10
g11
sbag4
(g12
g6
F-74.47584200288648
tp4431
Rp4432
(dp4433
g10
g16
sbaa(lp4434
g4
(g5
g6
F40.66915976133214
tp4435
Rp4436
(dp4437
g10
g11
sbag4
(g12
g6
F-74.47584200288827
tp4438
Rp4439
(dp4440
g10
g16
sbaa(lp4441
g4
(g5
g6
F40.66915894553419
tp4442
Rp4443
(dp4444
g10
g11
sbag4
(g12
g6
F-74.47584200289008
tp4445
Rp4446
(dp4447
g10
g16
sbaa(lp4448
g4
(g5
g6
F40.66915812973624
tp4449
Rp4450
(dp4451
g10
g11
sbag4
(g12
g6
F-74.47584200289187
tp4452
Rp4453
(dp4454
g10
g16
sbaa(lp4455
g4
(g5
g6
F40.66915731393829
tp4456
Rp4457
(dp4458
g10
g11
sbag4
(g12
g6
F-74.47584200289367
tp4459
Rp4460
(dp4461
g10
g16
sbaa(lp4462
g4
(g5
g6
F40.669156498140346
tp4463
Rp4464
(dp4465
g10
g11
sbag4
(g12
g6
F-74.47584200289548
tp4466
Rp4467
(dp4468
g10
g16
sbaa(lp4469
g4
(g5
g6
F40.66915568234375
tp4470
Rp4471
(dp4472
g10
g11
sbag4
(g12
g6
F-74.47584307430512
tp4473
Rp4474
(dp4475
g10
g16
sbaa(lp4476
g4
(g5
g6
F40.66915568234509
tp4477
Rp4478
(dp4479
g10
g11
sbag4
(g12
g6
F-74.47584414571297
tp4480
Rp4481
(dp4482
g10
g16
sbaa(lp4483
g4
(g5
g6
F40.66915568234642
tp4484
Rp4485
(dp4486
g10
g11
sbag4
(g12
g6
F-74.4758452171208
tp4487
Rp4488
(dp4489
g10
g16
sbaa(lp4490
g4
(g5
g6
F40.66915486654981
tp4491
Rp4492
(dp4493
g10
g11
sbag4
(g12
g6
F-74.47584628853042
tp4494
Rp4495
(dp4496
g10
g16
sbaa(lp4497
g4
(g5
g6
F40.6691540507532
tp4498
Rp4499
(dp4500
g10
g11
sbag4
(g12
g6
F-74.47584735994002
tp4501
Rp4502
(dp4503
g10
g16
sbaa(lp4504
g4
(g5
g6
F40.66915323495526
tp4505
Rp4506
(dp4507
g10
g11
sbag4
(g12
g6
F-74.47584735994177
tp4508
Rp4509
(dp4510
g10
g16
sbaa(lp4511
g4
(g5
g6
F40.669152419158664
tp4512
Rp4513
(dp4514
g10
g11
sbag4
(g12
g6
F-74.47584843135134
tp4515
Rp4516
(dp4517
g10
g16
sbaa(lp4518
g4
(g5
g6
F40.669151603360724
tp4519
Rp4520
(dp4521
g10
g11
sbag4
(g12
g6
F-74.47584843135307
tp4522
Rp4523
(dp4524
g10
g16
sbaa(lp4525
g4
(g5
g6
F40.669150787564114
tp4526
Rp4527
(dp4528
g10
g11
sbag4
(g12
g6
F-74.47584950276261
tp4529
Rp4530
(dp4531
g10
g16
sbaa(lp4532
g4
(g5
g6
F40.66915078756542
tp4533
Rp4534
(dp4535
g10
g11
sbag4
(g12
g6
F-74.47585057417041
tp4536
Rp4537
(dp4538
g10
g16
sbaa(lp4539
g4
(g5
g6
F40.66914997176881
tp4540
Rp4541
(dp4542
g10
g11
sbag4
(g12
g6
F-74.47585164557991
tp4543
Rp4544
(dp4545
g10
g16
sbaa(lp4546
g4
(g5
g6
F40.6691491559709
tp4547
Rp4548
(dp4549
g10
g11
sbag4
(g12
g6
F-74.47585164558163
tp4550
Rp4551
(dp4552
g10
g16
sbaa(lp4553
g4
(g5
g6
F40.66914834017297
tp4554
Rp4555
(dp4556
g10
g11
sbag4
(g12
g6
F-74.47585164558333
tp4557
Rp4558
(dp4559
g10
g16
sbaa(lp4560
g4
(g5
g6
F40.66914752437505
tp4561
Rp4562
(dp4563
g10
g11
sbag4
(g12
g6
F-74.47585164558504
tp4564
Rp4565
(dp4566
g10
g16
sbaa(lp4567
g4
(g5
g6
F40.66914670857714
tp4568
Rp4569
(dp4570
g10
g11
sbag4
(g12
g6
F-74.47585164558676
tp4571
Rp4572
(dp4573
g10
g16
sbaa(lp4574
g4
(g5
g6
F40.66914589278053
tp4575
Rp4576
(dp4577
g10
g11
sbag4
(g12
g6
F-74.4758527169962
tp4578
Rp4579
(dp4580
g10
g16
sbaa(lp4581
g4
(g5
g6
F40.66914507698261
tp4582
Rp4583
(dp4584
g10
g11
sbag4
(g12
g6
F-74.4758527169979
tp4585
Rp4586
(dp4587
g10
g16
sbaa(lp4588
g4
(g5
g6
F40.669144261186005
tp4589
Rp4590
(dp4591
g10
g11
sbag4
(g12
g6
F-74.4758537884073
tp4592
Rp4593
(dp4594
g10
g16
sbaa(lp4595
g4
(g5
g6
F40.669144261187306
tp4596
Rp4597
(dp4598
g10
g11
sbag4
(g12
g6
F-74.47585485981502
tp4599
Rp4600
(dp4601
g10
g16
sbaa(lp4602
g4
(g5
g6
F40.669143445390674
tp4603
Rp4604
(dp4605
g10
g11
sbag4
(g12
g6
F-74.4758559312244
tp4606
Rp4607
(dp4608
g10
g16
sbaa(lp4609
g4
(g5
g6
F40.66914262959406
tp4610
Rp4611
(dp4612
g10
g11
sbag4
(g12
g6
F-74.47585700263376
tp4613
Rp4614
(dp4615
g10
g16
sbaa(lp4616
g4
(g5
g6
F40.66914262959534
tp4617
Rp4618
(dp4619
g10
g11
sbag4
(g12
g6
F-74.47585807404145
tp4620
Rp4621
(dp4622
g10
g16
sbaa(lp4623
g4
(g5
g6
F40.66914262959661
tp4624
Rp4625
(dp4626
g10
g11
sbag4
(g12
g6
F-74.47585914544915
tp4627
Rp4628
(dp4629
g10
g16
sbaa(lp4630
g4
(g5
g6
F40.66914262959787
tp4631
Rp4632
(dp4633
g10
g11
sbag4
(g12
g6
F-74.47586021685683
tp4634
Rp4635
(dp4636
g10
g16
sbaa(lp4637
g4
(g5
g6
F40.66914181380123
tp4638
Rp4639
(dp4640
g10
g11
sbag4
(g12
g6
F-74.47586128826615
tp4641
Rp4642
(dp4643
g10
g16
sbaa(lp4644
g4
(g5
g6
F40.669140998003336
tp4645
Rp4646
(dp4647
g10
g11
sbag4
(g12
g6
F-74.47586128826775
tp4648
Rp4649
(dp4650
g10
g16
sbaa(lp4651
g4
(g5
g6
F40.66914018220544
tp4652
Rp4653
(dp4654
g10
g11
sbag4
(g12
g6
F-74.47586128826936
tp4655
Rp4656
(dp4657
g10
g16
sbaa(lp4658
g4
(g5
g6
F40.66913936640755
tp4659
Rp4660
(dp4661
g10
g11
sbag4
(g12
g6
F-74.47586128827096
tp4662
Rp4663
(dp4664
g10
g16
sbaa(lp4665
g4
(g5
g6
F40.6691385506109
tp4666
Rp4667
(dp4668
g10
g11
sbag4
(g12
g6
F-74.47586235968022
tp4669
Rp4670
(dp4671
g10
g16
sbaa(lp4672
g4
(g5
g6
F40.66913773481301
tp4673
Rp4674
(dp4675
g10
g11
sbag4
(g12
g6
F-74.47586235968181
tp4676
Rp4677
(dp4678
g10
g16
sbaa(lp4679
g4
(g5
g6
F40.669136919015116
tp4680
Rp4681
(dp4682
g10
g11
sbag4
(g12
g6
F-74.4758623596834
tp4683
Rp4684
(dp4685
g10
g16
sbaa(lp4686
g4
(g5
g6
F40.669136103217234
tp4687
Rp4688
(dp4689
g10
g11
sbag4
(g12
g6
F-74.47586235968501
tp4690
Rp4691
(dp4692
g10
g16
sbaa(lp4693
g4
(g5
g6
F40.669135287420595
tp4694
Rp4695
(dp4696
g10
g11
sbag4
(g12
g6
F-74.4758634310942
tp4697
Rp4698
(dp4699
g10
g16
sbaa(lp4700
g4
(g5
g6
F40.66913447162395
tp4701
Rp4702
(dp4703
g10
g11
sbag4
(g12
g6
F-74.47586450250336
tp4704
Rp4705
(dp4706
g10
g16
sbaa(lp4707
g4
(g5
g6
F40.6691336558273
tp4708
Rp4709
(dp4710
g10
g11
sbag4
(g12
g6
F-74.4758655739125
tp4711
Rp4712
(dp4713
g10
g16
sbaa(lp4714
g4
(g5
g6
F40.669132840030656
tp4715
Rp4716
(dp4717
g10
g11
sbag4
(g12
g6
F-74.47586664532162
tp4718
Rp4719
(dp4720
g10
g16
sbaa(lp4721
g4
(g5
g6
F40.669132024234
tp4722
Rp4723
(dp4724
g10
g11
sbag4
(g12
g6
F-74.4758677167307
tp4725
Rp4726
(dp4727
g10
g16
sbaa(lp4728
g4
(g5
g6
F40.66913120843613
tp4729
Rp4730
(dp4731
g10
g11
sbag4
(g12
g6
F-74.47586771673224
tp4732
Rp4733
(dp4734
g10
g16
sbaa(lp4735
g4
(g5
g6
F40.66913039263824
tp4736
Rp4737
(dp4738
g10
g11
sbag4
(g12
g6
F-74.47586771673377
tp4739
Rp4740
(dp4741
g10
g16
sbaa(lp4742
g4
(g5
g6
F40.66912957684036
tp4743
Rp4744
(dp4745
g10
g11
sbag4
(g12
g6
F-74.47586771673531
tp4746
Rp4747
(dp4748
g10
g16
sbaa(lp4749
g4
(g5
g6
F40.66912876104248
tp4750
Rp4751
(dp4752
g10
g11
sbag4
(g12
g6
F-74.47586771673686
tp4753
Rp4754
(dp4755
g10
g16
sbaa(lp4756
g4
(g5
g6
F40.6691279452446
tp4757
Rp4758
(dp4759
g10
g11
sbag4
(g12
g6
F-74.47586771673839
tp4760
Rp4761
(dp4762
g10
g16
sbaa(lp4763
g4
(g5
g6
F40.669127129446714
tp4764
Rp4765
(dp4766
g10
g11
sbag4
(g12
g6
F-74.47586771673993
tp4767
Rp4768
(dp4769
g10
g16
sbaa(lp4770
g4
(g5
g6
F40.66912631364884
tp4771
Rp4772
(dp4773
g10
g11
sbag4
(g12
g6
F-74.47586771674146
tp4774
Rp4775
(dp4776
g10
g16
sbaa(lp4777
g4
(g5
g6
F40.66912549784971
tp4778
Rp4779
(dp4780
g10
g11
sbag4
(g12
g6
F-74.47586664533557
tp4781
Rp4782
(dp4783
g10
g16
sbaa(lp4784
g4
(g5
g6
F40.669124682050594
tp4785
Rp4786
(dp4787
g10
g11
sbag4
(g12
g6
F-74.4758655739297
tp4788
Rp4789
(dp4790
g10
g16
sbaa(lp4791
g4
(g5
g6
F40.66912386625145
tp4792
Rp4793
(dp4794
g10
g11
sbag4
(g12
g6
F-74.47586450252385
tp4795
Rp4796
(dp4797
g10
g16
sbaa(lp4798
g4
(g5
g6
F40.66912305045483
tp4799
Rp4800
(dp4801
g10
g11
sbag4
(g12
g6
F-74.47586557393282
tp4802
Rp4803
(dp4804
g10
g16
sbaas.