(dp0
VPicture 1
p1
(lp2
(lp3
ccopy_reg
_reconstructor
p4
(cpygeodesy.units
Lat
p5
c__builtin__
float
p6
F40.66937431519828
tp7
Rp8
(dp9
V_name
p10
Vlat
p11
sbag4
(cpygeodesy.units
Lon
p12
g6
F-74.47649127770211
tp13
Rp14
(dp15
g10
Vlon
p16
sbaa(lp17
g4
(g5
g6
F40.669374315193636
tp18
Rp19
(dp20
g10
g11
sbag4
(g12
g6
F-74.47649234911349
tp21
Rp22
(dp23
g10
g16
sbaa(lp24
g4
(g5
g6
F40.6693734993911
tp25
Rp26
(dp27
g10
g11
sbag4
(g12
g6
F-74.47649342051875
tp28
Rp29
(dp30
g10
g16
sbaa(lp31
g4
(g5
g6
F40.66937268359321
tp32
Rp33
(dp34
g10
g11
sbag4
(g12
g6
F-74.47649342051264
tp35
Rp36
(dp37
g10
g16
sbaa(lp38
g4
(g5
g6
F40.66937186779533
tp39
Rp40
(dp41
g10
g11
sbag4
(g12
g6
F-74.47649342050653
tp42
Rp43
(dp44
g10
g16
sbaa(lp45
g4
(g5
g6
F40.66937105199744
tp46
Rp47
(dp48
g10
g11
sbag4
(g12
g6
F-74.47649342050042
tp49
Rp50
(dp51
g10
g16
sbaa(lp52
g4
(g5
g6
F40.66937023619955
tp53
Rp54
(dp55
g10
g11
sbag4
(g12
g6
F-74.47649342049431
tp56
Rp57
(dp58
g10
g16
sbaa(lp59
g4
(g5
g6
F40.66936942040166
tp60
Rp61
(dp62
g10
g11
sbag4
(g12
g6
F-74.4764934204882
tp63
Rp64
(dp65
g10
g16
sbaa(lp66
g4
(g5
g6
F40.669368604608415
tp67
Rp68
(dp69
g10
g11
sbag4
(g12
g6
F-74.4764923490708
tp70
Rp71
(dp72
g10
g16
sbaa(lp73
g4
(g5
g6
F40.669367788815165
tp74
Rp75
(dp76
g10
g11
sbag4
(g12
g6
F-74.47649127765344
tp77
Rp78
(dp79
g10
g16
sbaa(lp80
g4
(g5
g6
F40.66936697301728
tp81
Rp82
(dp83
g10
g11
sbag4
(g12
g6
F-74.47649127764734
tp84
Rp85
(dp86
g10
g16
sbaa(lp87
g4
(g5
g6
F40.66936615721939
tp88
Rp89
(dp90
g10
g11
sbag4
(g12
g6
F-74.47649127764126
tp91
Rp92
(dp93
g10
g16
sbaa(lp94
g4
(g5
g6
F40.669365341416864
tp95
Rp96
(dp97
g10
g11
sbag4
(g12
g6
F-74.47649234904641
tp98
Rp99
(dp100
g10
g16
sbaa(lp101
g4
(g5
g6
F40.669364525618974
tp102
Rp103
(dp104
g10
g11
sbag4
(g12
g6
F-74.47649234904031
tp105
Rp106
(dp107
g10
g16
sbaa(lp108
g4
(g5
g6
F40.66936370982572
tp109
Rp110
(dp111
g10
g11
sbag4
(g12
g6
F-74.47649127762301
tp112
Rp113
(dp114
g10
g16
sbaa(lp115
g4
(g5
g6
F40.66936289403245
tp116
Rp117
(dp118
g10
g11
sbag4
(g12
g6
F-74.47649020620574
tp119
Rp120
(dp121
g10
g16
sbaa(lp122
g4
(g5
g6
F40.66936207823918
tp123
Rp124
(dp125
g10
g11
sbag4
(g12
g6
F-74.47648913478848
tp126
Rp127
(dp128
g10
g16
sbaa(lp129
g4
(g5
g6
F40.66936207824379
tp130
Rp131
(dp132
g10
g11
sbag4
(g12
g6
F-74.4764880633773
tp133
Rp134
(dp135
g10
g16
sbaa(lp136
g4
(g5
g6
F40.6693612624505
tp137
Rp138
(dp139
g10
g11
sbag4
(g12
g6
F-74.47648699196009
tp140
Rp141
(dp142
g10
g16
sbaa(lp143
g4
(g5
g6
F40.6693604466572
tp144
Rp145
(dp146
g10
g11
sbag4
(g12
g6
F-74.4764859205429
tp147
Rp148
(dp149
g10
g16
sbaa(lp150
g4
(g5
g6
F40.66935963086389
tp151
Rp152
(dp153
g10
g11
sbag4
(g12
g6
F-74.47648484912574
tp154
Rp155
(dp156
g10
g16
sbaa(lp157
g4
(g5
g6
F40.66935881507057
tp158
Rp159
(dp160
g10
g11
sbag4
(g12
g6
F-74.4764837777086
tp161
Rp162
(dp163
g10
g16
sbaa(lp164
g4
(g5
g6
F40.66935799927724
tp165
Rp166
(dp167
g10
g11
sbag4
(g12
g6
F-74.47648270629149
tp168
Rp169
(dp170
g10
g16
sbaa(lp171
g4
(g5
g6
F40.669358815079676
tp172
Rp173
(dp174
g10
g11
sbag4
(g12
g6
F-74.47648163488634
tp175
Rp176
(dp177
g10
g16
sbaa(lp178
g4
(g5
g6
F40.66935881508421
tp179
Rp180
(dp181
g10
g11
sbag4
(g12
g6
F-74.4764805634752
tp182
Rp183
(dp184
g10
g16
sbaa(lp185
g4
(g5
g6
F40.66935881508874
tp186
Rp187
(dp188
g10
g11
sbag4
(g12
g6
F-74.47647949206407
tp189
Rp190
(dp191
g10
g16
sbaa(lp192
g4
(g5
g6
F40.669358815093254
tp193
Rp194
(dp195
g10
g11
sbag4
(g12
g6
F-74.47647842065295
tp196
Rp197
(dp198
g10
g16
sbaa(lp199
g4
(g5
g6
F40.669358815097766
tp200
Rp201
(dp202
g10
g11
sbag4
(g12
g6
F-74.47647734924182
tp203
Rp204
(dp205
g10
g16
sbaa(lp206
g4
(g5
g6
F40.66935963090015
tp207
Rp208
(dp209
g10
g11
sbag4
(g12
g6
F-74.4764762778366
tp210
Rp211
(dp212
g10
g16
sbaa(lp213
g4
(g5
g6
F40.66936044670254
tp214
Rp215
(dp216
g10
g11
sbag4
(g12
g6
F-74.47647520643133
tp217
Rp218
(dp219
g10
g16
sbaa(lp220
g4
(g5
g6
F40.6693612625049
tp221
Rp222
(dp223
g10
g11
sbag4
(g12
g6
F-74.47647413502605
tp224
Rp225
(dp226
g10
g16
sbaa(lp227
g4
(g5
g6
F40.66936207830279
tp228
Rp229
(dp230
g10
g11
sbag4
(g12
g6
F-74.47647413503194
tp231
Rp232
(dp233
g10
g16
sbaa(lp234
g4
(g5
g6
F40.669362894100686
tp235
Rp236
(dp237
g10
g11
sbag4
(g12
g6
F-74.4764741350378
tp238
Rp239
(dp240
g10
g16
sbaa(lp241
g4
(g5
g6
F40.66936370990304
tp242
Rp243
(dp244
g10
g11
sbag4
(g12
g6
F-74.47647306363247
tp245
Rp246
(dp247
g10
g16
sbaa(lp248
g4
(g5
g6
F40.66936452570539
tp249
Rp250
(dp251
g10
g11
sbag4
(g12
g6
F-74.47647199222712
tp252
Rp253
(dp254
g10
g16
sbaa(lp255
g4
(g5
g6
F40.66936534150773
tp256
Rp257
(dp258
g10
g11
sbag4
(g12
g6
F-74.47647092082173
tp259
Rp260
(dp261
g10
g16
sbaa(lp262
g4
(g5
g6
F40.66936452571428
tp263
Rp264
(dp265
g10
g11
sbag4
(g12
g6
F-74.47646984940467
tp266
Rp267
(dp268
g10
g16
sbaa(lp269
g4
(g5
g6
F40.669364525718706
tp270
Rp271
(dp272
g10
g11
sbag4
(g12
g6
F-74.47646877799345
tp273
Rp274
(dp275
g10
g16
sbaa(lp276
g4
(g5
g6
F40.669364525723125
tp277
Rp278
(dp279
g10
g11
sbag4
(g12
g6
F-74.47646770658223
tp280
Rp281
(dp282
g10
g16
sbaa(lp283
g4
(g5
g6
F40.66936534152543
tp284
Rp285
(dp286
g10
g11
sbag4
(g12
g6
F-74.47646663517679
tp287
Rp288
(dp289
g10
g16
sbaa(lp290
g4
(g5
g6
F40.66936534152983
tp291
Rp292
(dp293
g10
g11
sbag4
(g12
g6
F-74.47646556376556
tp294
Rp295
(dp296
g10
g16
sbaa(lp297
g4
(g5
g6
F40.66936534153421
tp298
Rp299
(dp300
g10
g11
sbag4
(g12
g6
F-74.47646449235432
tp301
Rp302
(dp303
g10
g16
sbaa(lp304
g4
(g5
g6
F40.669365341538594
tp305
Rp306
(dp307
g10
g11
sbag4
(g12
g6
F-74.47646342094309
tp308
Rp309
(dp310
g10
g16
sbaa(lp311
g4
(g5
g6
F40.66936534154296
tp312
Rp313
(dp314
g10
g11
sbag4
(g12
g6
F-74.47646234953186
tp315
Rp316
(dp317
g10
g16
sbaa(lp318
g4
(g5
g6
F40.669365341547326
tp319
Rp320
(dp321
g10
g11
sbag4
(g12
g6
F-74.47646127812062
tp322
Rp323
(dp324
g10
g16
sbaa(lp325
g4
(g5
g6
F40.66936452575377
tp326
Rp327
(dp328
g10
g11
sbag4
(g12
g6
F-74.47646020670368
tp329
Rp330
(dp331
g10
g16
sbaa(lp332
g4
(g5
g6
F40.66936370996023
tp333
Rp334
(dp335
g10
g11
sbag4
(g12
g6
F-74.47645913528676
tp336
Rp337
(dp338
g10
g16
sbaa(lp339
g4
(g5
g6
F40.66936289416235
tp340
Rp341
(dp342
g10
g11
sbag4
(g12
g6
F-74.47645913528108
tp343
Rp344
(dp345
g10
g16
sbaa(lp346
g4
(g5
g6
F40.66936207836878
tp347
Rp348
(dp349
g10
g11
sbag4
(g12
g6
F-74.4764580638642
tp350
Rp351
(dp352
g10
g16
sbaa(lp353
g4
(g5
g6
F40.66936126257521
tp354
Rp355
(dp356
g10
g11
sbag4
(g12
g6
F-74.47645699244735
tp357
Rp358
(dp359
g10
g16
sbaa(lp360
g4
(g5
g6
F40.66936044678163
tp361
Rp362
(dp363
g10
g11
sbag4
(g12
g6
F-74.47645592103054
tp364
Rp365
(dp366
g10
g16
sbaa(lp367
g4
(g5
g6
F40.66936044678593
tp368
Rp369
(dp370
g10
g11
sbag4
(g12
g6
F-74.47645484961937
tp371
Rp372
(dp373
g10
g16
sbaa(lp374
g4
(g5
g6
F40.66936044679022
tp375
Rp376
(dp377
g10
g11
sbag4
(g12
g6
F-74.47645377820821
tp378
Rp379
(dp380
g10
g16
sbaa(lp381
g4
(g5
g6
F40.66936044679451
tp382
Rp383
(dp384
g10
g11
sbag4
(g12
g6
F-74.47645270679706
tp385
Rp386
(dp387
g10
g16
sbaa(lp388
g4
(g5
g6
F40.66936044679877
tp389
Rp390
(dp391
g10
g11
sbag4
(g12
g6
F-74.4764516353859
tp392
Rp393
(dp394
g10
g16
sbaa(lp395
g4
(g5
g6
F40.669359631005136
tp396
Rp397
(dp398
g10
g11
sbag4
(g12
g6
F-74.47645056396917
tp399
Rp400
(dp401
g10
g16
sbaa(lp402
g4
(g5
g6
F40.669359631009385
tp403
Rp404
(dp405
g10
g11
sbag4
(g12
g6
F-74.47644949255802
tp406
Rp407
(dp408
g10
g16
sbaa(lp409
g4
(g5
g6
F40.66935963101363
tp410
Rp411
(dp412
g10
g11
sbag4
(g12
g6
F-74.47644842114687
tp413
Rp414
(dp415
g10
g16
sbaa(lp416
g4
(g5
g6
F40.66936044681576
tp417
Rp418
(dp419
g10
g11
sbag4
(g12
g6
F-74.47644734974128
tp420
Rp421
(dp422
g10
g16
sbaa(lp423
g4
(g5
g6
F40.66936126261786
tp424
Rp425
(dp426
g10
g11
sbag4
(g12
g6
F-74.47644627833566
tp427
Rp428
(dp429
g10
g16
sbaa(lp430
g4
(g5
g6
F40.66936207841995
tp431
Rp432
(dp433
g10
g11
sbag4
(g12
g6
F-74.47644520693001
tp434
Rp435
(dp436
g10
g16
sbaa(lp437
g4
(g5
g6
F40.66936289422205
tp438
Rp439
(dp440
g10
g11
sbag4
(g12
g6
F-74.47644413552435
tp441
Rp442
(dp443
g10
g16
sbaa(lp444
g4
(g5
g6
F40.66936289422624
tp445
Rp446
(dp447
g10
g11
sbag4
(g12
g6
F-74.47644306411314
tp448
Rp449
(dp450
g10
g16
sbaa(lp451
g4
(g5
g6
F40.669362894230424
tp452
Rp453
(dp454
g10
g11
sbag4
(g12
g6
F-74.47644199270195
tp455
Rp456
(dp457
g10
g16
sbaa(lp458
g4
(g5
g6
F40.669362894234595
tp459
Rp460
(dp461
g10
g11
sbag4
(g12
g6
F-74.47644092129076
tp462
Rp463
(dp464
g10
g16
sbaa(lp465
g4
(g5
g6
F40.66936371003664
tp466
Rp467
(dp468
g10
g11
sbag4
(g12
g6
F-74.47643984988503
tp469
Rp470
(dp471
g10
g16
sbaa(lp472
g4
(g5
g6
F40.66936452583868
tp473
Rp474
(dp475
g10
g11
sbag4
(g12
g6
F-74.47643877847925
tp476
Rp477
(dp478
g10
g16
sbaa(lp479
g4
(g5
g6
F40.66936534164071
tp480
Rp481
(dp482
g10
g11
sbag4
(g12
g6
F-74.47643770707346
tp483
Rp484
(dp485
g10
g16
sbaa(lp486
g4
(g5
g6
F40.66936534164484
tp487
Rp488
(dp489
g10
g11
sbag4
(g12
g6
F-74.47643663566222
tp490
Rp491
(dp492
g10
g16
sbaa(lp493
g4
(g5
g6
F40.66936534164897
tp494
Rp495
(dp496
g10
g11
sbag4
(g12
g6
F-74.47643556425099
tp497
Rp498
(dp499
g10
g16
sbaa(lp500
g4
(g5
g6
F40.66936534165308
tp501
Rp502
(dp503
g10
g11
sbag4
(g12
g6
F-74.47643449283976
tp504
Rp505
(dp506
g10
g16
sbaa(lp507
g4
(g5
g6
F40.669365341657176
tp508
Rp509
(dp510
g10
g11
sbag4
(g12
g6
F-74.47643342142852
tp511
Rp512
(dp513
g10
g16
sbaa(lp514
g4
(g5
g6
F40.66936615745916
tp515
Rp516
(dp517
g10
g11
sbag4
(g12
g6
F-74.47643235002266
tp518
Rp519
(dp520
g10
g16
sbaa(lp521
g4
(g5
g6
F40.66936697326113
tp522
Rp523
(dp524
g10
g11
sbag4
(g12
g6
F-74.47643127861676
tp525
Rp526
(dp527
g10
g16
sbaa(lp528
g4
(g5
g6
F40.66936778906309
tp529
Rp530
(dp531
g10
g11
sbag4
(g12
g6
F-74.47643020721084
tp532
Rp533
(dp534
g10
g16
sbaa(lp535
g4
(g5
g6
F40.66936860486503
tp536
Rp537
(dp538
g10
g11
sbag4
(g12
g6
F-74.47642913580489
tp539
Rp540
(dp541
g10
g16
sbaa(lp542
g4
(g5
g6
F40.66936942066698
tp543
Rp544
(dp545
g10
g11
sbag4
(g12
g6
F-74.47642806439893
tp546
Rp547
(dp548
g10
g16
sbaa(lp549
g4
(g5
g6
F40.669370236464864
tp550
Rp551
(dp552
g10
g11
sbag4
(g12
g6
F-74.47642806440423
tp553
Rp554
(dp555
g10
g16
sbaa(lp556
g4
(g5
g6
F40.6693710522668
tp557
Rp558
(dp559
g10
g11
sbag4
(g12
g6
F-74.47642699299823
tp560
Rp561
(dp562
g10
g16
sbaa(lp563
g4
(g5
g6
F40.669371052270826
tp564
Rp565
(dp566
g10
g11
sbag4
(g12
g6
F-74.4764259215869
tp567
Rp568
(dp569
g10
g16
sbaa(lp570
g4
(g5
g6
F40.66937023647696
tp571
Rp572
(dp573
g10
g11
sbag4
(g12
g6
F-74.4764248501703
tp574
Rp575
(dp576
g10
g16
sbaa(lp577
g4
(g5
g6
F40.66937105227886
tp578
Rp579
(dp580
g10
g11
sbag4
(g12
g6
F-74.47642377876424
tp581
Rp582
(dp583
g10
g16
sbaa(lp584
g4
(g5
g6
F40.66937105228286
tp585
Rp586
(dp587
g10
g11
sbag4
(g12
g6
F-74.47642270735292
tp588
Rp589
(dp590
g10
g16
sbaa(lp591
g4
(g5
g6
F40.669371868084745
tp592
Rp593
(dp594
g10
g11
sbag4
(g12
g6
F-74.47642163594683
tp595
Rp596
(dp597
g10
g16
sbaa(lp598
g4
(g5
g6
F40.66937186808872
tp599
Rp600
(dp601
g10
g11
sbag4
(g12
g6
F-74.47642056453549
tp602
Rp603
(dp604
g10
g16
sbaa(lp605
g4
(g5
g6
F40.669371868092696
tp606
Rp607
(dp608
g10
g11
sbag4
(g12
g6
F-74.47641949312415
tp609
Rp610
(dp611
g10
g16
sbaa(lp612
g4
(g5
g6
F40.66937186809666
tp613
Rp614
(dp615
g10
g11
sbag4
(g12
g6
F-74.47641842171282
tp616
Rp617
(dp618
g10
g16
sbaa(lp619
g4
(g5
g6
F40.669372683898494
tp620
Rp621
(dp622
g10
g11
sbag4
(g12
g6
F-74.47641735030666
tp623
Rp624
(dp625
g10
g16
sbaa(lp626
g4
(g5
g6
F40.66937349970032
tp627
Rp628
(dp629
g10
g11
sbag4
(g12
g6
F-74.47641627890047
tp630
Rp631
(dp632
g10
g16
sbaa(lp633
g4
(g5
g6
F40.66937349970426
tp634
Rp635
(dp636
g10
g11
sbag4
(g12
g6
F-74.47641520748911
tp637
Rp638
(dp639
g10
g16
sbaa(lp640
g4
(g5
g6
F40.669373499708186
tp641
Rp642
(dp643
g10
g11
sbag4
(g12
g6
F-74.47641413607775
tp644
Rp645
(dp646
g10
g16
sbaa(lp647
g4
(g5
g6
F40.669373499712094
tp648
Rp649
(dp650
g10
g11
sbag4
(g12
g6
F-74.47641306466639
tp651
Rp652
(dp653
g10
g16
sbaa(lp654
g4
(g5
g6
F40.669373499716
tp655
Rp656
(dp657
g10
g11
sbag4
(g12
g6
F-74.47641199325501
tp658
Rp659
(dp660
g10
g16
sbaa(lp661
g4
(g5
g6
F40.66937431551777
tp662
Rp663
(dp664
g10
g11
sbag4
(g12
g6
F-74.47641092184875
tp665
Rp666
(dp667
g10
g16
sbaa(lp668
g4
(g5
g6
F40.669375131319555
tp669
Rp670
(dp671
g10
g11
sbag4
(g12
g6
F-74.47640985044248
tp672
Rp673
(dp674
g10
g16
sbaa(lp675
g4
(g5
g6
F40.66937513132341
tp676
Rp677
(dp678
g10
g11
sbag4
(g12
g6
F-74.47640877903109
tp679
Rp680
(dp681
g10
g16
sbaa(lp682
g4
(g5
g6
F40.669375131327286
tp683
Rp684
(dp685
g10
g11
sbag4
(g12
g6
F-74.47640770761969
tp686
Rp687
(dp688
g10
g16
sbaa(lp689
g4
(g5
g6
F40.66937513133114
tp690
Rp691
(dp692
g10
g11
sbag4
(g12
g6
F-74.4764066362083
tp693
Rp694
(dp695
g10
g16
sbaa(lp696
g4
(g5
g6
F40.66937431553709
tp697
Rp698
(dp699
g10
g11
sbag4
(g12
g6
F-74.47640556479188
tp700
Rp701
(dp702
g10
g16
sbaa(lp703
g4
(g5
g6
F40.66937431554092
tp704
Rp705
(dp706
g10
g11
sbag4
(g12
g6
F-74.47640449338049
tp707
Rp708
(dp709
g10
g16
sbaa(lp710
g4
(g5
g6
F40.669373499746854
tp711
Rp712
(dp713
g10
g11
sbag4
(g12
g6
F-74.47640342196411
tp714
Rp715
(dp716
g10
g16
sbaa(lp717
g4
(g5
g6
F40.66937349975067
tp718
Rp719
(dp720
g10
g11
sbag4
(g12
g6
F-74.47640235055273
tp721
Rp722
(dp723
g10
g16
sbaa(lp724
g4
(g5
g6
F40.66937431555235
tp725
Rp726
(dp727
g10
g11
sbag4
(g12
g6
F-74.47640127914636
tp728
Rp729
(dp730
g10
g16
sbaa(lp731
g4
(g5
g6
F40.669375131354045
tp732
Rp733
(dp734
g10
g11
sbag4
(g12
g6
F-74.47640020773996
tp735
Rp736
(dp737
g10
g16
sbaa(lp738
g4
(g5
g6
F40.66937594715571
tp739
Rp740
(dp741
g10
g11
sbag4
(g12
g6
F-74.47639913633353
tp742
Rp743
(dp744
g10
g16
sbaa(lp745
g4
(g5
g6
F40.66937594715948
tp746
Rp747
(dp748
g10
g11
sbag4
(g12
g6
F-74.47639806492212
tp749
Rp750
(dp751
g10
g16
sbaa(lp752
g4
(g5
g6
F40.669376762961136
tp753
Rp754
(dp755
g10
g11
sbag4
(g12
g6
F-74.47639699351565
tp756
Rp757
(dp758
g10
g16
sbaa(lp759
g4
(g5
g6
F40.66937676296488
tp760
Rp761
(dp762
g10
g11
sbag4
(g12
g6
F-74.47639592210423
tp763
Rp764
(dp765
g10
g16
sbaa(lp766
g4
(g5
g6
F40.66937757876652
tp767
Rp768
(dp769
g10
g11
sbag4
(g12
g6
F-74.47639485069773
tp770
Rp771
(dp772
g10
g16
sbaa(lp773
g4
(g5
g6
F40.66937757877026
tp774
Rp775
(dp776
g10
g11
sbag4
(g12
g6
F-74.4763937792863
tp777
Rp778
(dp779
g10
g16
sbaa(lp780
g4
(g5
g6
F40.669377578773975
tp781
Rp782
(dp783
g10
g11
sbag4
(g12
g6
F-74.47639270787487
tp784
Rp785
(dp786
g10
g16
sbaa(lp787
g4
(g5
g6
F40.669377578777684
tp788
Rp789
(dp790
g10
g11
sbag4
(g12
g6
F-74.47639163646343
tp791
Rp792
(dp793
g10
g16
sbaa(lp794
g4
(g5
g6
F40.66937757878139
tp795
Rp796
(dp797
g10
g11
sbag4
(g12
g6
F-74.476390565052
tp798
Rp799
(dp800
g10
g16
sbaa(lp801
g4
(g5
g6
F40.6693767629872
tp802
Rp803
(dp804
g10
g11
sbag4
(g12
g6
F-74.47638949363574
tp805
Rp806
(dp807
g10
g16
sbaa(lp808
g4
(g5
g6
F40.66937676299088
tp809
Rp810
(dp811
g10
g11
sbag4
(g12
g6
F-74.47638842222432
tp812
Rp813
(dp814
g10
g16
sbaa(lp815
g4
(g5
g6
F40.66937676299455
tp816
Rp817
(dp818
g10
g11
sbag4
(g12
g6
F-74.4763873508129
tp819
Rp820
(dp821
g10
g16
sbaa(lp822
g4
(g5
g6
F40.66937594720033
tp823
Rp824
(dp825
g10
g11
sbag4
(g12
g6
F-74.47638627939668
tp826
Rp827
(dp828
g10
g16
sbaa(lp829
g4
(g5
g6
F40.6693751314061
tp830
Rp831
(dp832
g10
g11
sbag4
(g12
g6
F-74.47638520798048
tp833
Rp834
(dp835
g10
g16
sbaa(lp836
g4
(g5
g6
F40.669375131409744
tp837
Rp838
(dp839
g10
g11
sbag4
(g12
g6
F-74.4763841365691
tp840
Rp841
(dp842
g10
g16
sbaa(lp843
g4
(g5
g6
F40.669375131413375
tp844
Rp845
(dp846
g10
g11
sbag4
(g12
g6
F-74.4763830651577
tp847
Rp848
(dp849
g10
g16
sbaa(lp850
g4
(g5
g6
F40.66937431561911
tp851
Rp852
(dp853
g10
g11
sbag4
(g12
g6
F-74.47638199374155
tp854
Rp855
(dp856
g10
g16
sbaa(lp857
g4
(g5
g6
F40.669373499824836
tp858
Rp859
(dp860
g10
g11
sbag4
(g12
g6
F-74.47638092232543
tp861
Rp862
(dp863
g10
g16
sbaa(lp864
g4
(g5
g6
F40.66937349982843
tp865
Rp866
(dp867
g10
g11
sbag4
(g12
g6
F-74.47637985091407
tp868
Rp869
(dp870
g10
g16
sbaa(lp871
g4
(g5
g6
F40.669373499832034
tp872
Rp873
(dp874
g10
g11
sbag4
(g12
g6
F-74.47637877950271
tp875
Rp876
(dp877
g10
g16
sbaa(lp878
g4
(g5
g6
F40.66937349983561
tp879
Rp880
(dp881
g10
g11
sbag4
(g12
g6
F-74.47637770809135
tp882
Rp883
(dp884
g10
g16
sbaa(lp885
g4
(g5
g6
F40.66937349983919
tp886
Rp887
(dp888
g10
g11
sbag4
(g12
g6
F-74.47637663667997
tp889
Rp890
(dp891
g10
g16
sbaa(lp892
g4
(g5
g6
F40.66937349984275
tp893
Rp894
(dp895
g10
g11
sbag4
(g12
g6
F-74.47637556526861
tp896
Rp897
(dp898
g10
g16
sbaa(lp899
g4
(g5
g6
F40.6693734998463
tp900
Rp901
(dp902
g10
g11
sbag4
(g12
g6
F-74.47637449385725
tp903
Rp904
(dp905
g10
g16
sbaa(lp906
g4
(g5
g6
F40.669373499849854
tp907
Rp908
(dp909
g10
g11
sbag4
(g12
g6
F-74.47637342244589
tp910
Rp911
(dp912
g10
g16
sbaa(lp913
g4
(g5
g6
F40.669373499853386
tp914
Rp915
(dp916
g10
g11
sbag4
(g12
g6
F-74.47637235103451
tp917
Rp918
(dp919
g10
g16
sbaa(lp920
g4
(g5
g6
F40.6693734998569
tp921
Rp922
(dp923
g10
g11
sbag4
(g12
g6
F-74.47637127962315
tp924
Rp925
(dp926
g10
g16
sbaa(lp927
g4
(g5
g6
F40.66937349986042
tp928
Rp929
(dp930
g10
g11
sbag4
(g12
g6
F-74.47637020821179
tp931
Rp932
(dp933
g10
g16
sbaa(lp934
g4
(g5
g6
F40.66937349986393
tp935
Rp936
(dp937
g10
g11
sbag4
(g12
g6
F-74.47636913680043
tp938
Rp939
(dp940
g10
g16
sbaa(lp941
g4
(g5
g6
F40.669373499867426
tp942
Rp943
(dp944
g10
g11
sbag4
(g12
g6
F-74.47636806538905
tp945
Rp946
(dp947
g10
g16
sbaa(lp948
g4
(g5
g6
F40.6693734998709
tp949
Rp950
(dp951
g10
g11
sbag4
(g12
g6
F-74.47636699397769
tp952
Rp953
(dp954
g10
g16
sbaa(lp955
g4
(g5
g6
F40.66937349987438
tp956
Rp957
(dp958
g10
g11
sbag4
(g12
g6
F-74.47636592256633
tp959
Rp960
(dp961
g10
g16
sbaa(lp962
g4
(g5
g6
F40.66937349987785
tp963
Rp964
(dp965
g10
g11
sbag4
(g12
g6
F-74.47636485115497
tp966
Rp967
(dp968
g10
g16
sbaa(lp969
g4
(g5
g6
F40.6693734998813
tp970
Rp971
(dp972
g10
g11
sbag4
(g12
g6
F-74.4763637797436
tp973
Rp974
(dp975
g10
g16
sbaa(lp976
g4
(g5
g6
F40.66937349988475
tp977
Rp978
(dp979
g10
g11
sbag4
(g12
g6
F-74.47636270833223
tp980
Rp981
(dp982
g10
g16
sbaa(lp983
g4
(g5
g6
F40.66937349988818
tp984
Rp985
(dp986
g10
g11
sbag4
(g12
g6
F-74.47636163692087
tp987
Rp988
(dp989
g10
g16
sbaa(lp990
g4
(g5
g6
F40.669373499891606
tp991
Rp992
(dp993
g10
g11
sbag4
(g12
g6
F-74.47636056550951
tp994
Rp995
(dp996
g10
g16
sbaa(lp997
g4
(g5
g6
F40.669373499895016
tp998
Rp999
(dp1000
g10
g11
sbag4
(g12
g6
F-74.47635949409813
tp1001
Rp1002
(dp1003
g10
g16
sbaa(lp1004
g4
(g5
g6
F40.66937349989843
tp1005
Rp1006
(dp1007
g10
g11
sbag4
(g12
g6
F-74.47635842268677
tp1008
Rp1009
(dp1010
g10
g16
sbaa(lp1011
g4
(g5
g6
F40.66937349990182
tp1012
Rp1013
(dp1014
g10
g11
sbag4
(g12
g6
F-74.47635735127541
tp1015
Rp1016
(dp1017
g10
g16
sbaa(lp1018
g4
(g5
g6
F40.669372684107316
tp1019
Rp1020
(dp1021
g10
g11
sbag4
(g12
g6
F-74.4763562798596
tp1022
Rp1023
(dp1024
g10
g16
sbaa(lp1025
g4
(g5
g6
F40.6693718683128
tp1026
Rp1027
(dp1028
g10
g11
sbag4
(g12
g6
F-74.47635520844383
tp1029
Rp1030
(dp1031
g10
g16
sbaa(lp1032
g4
(g5
g6
F40.66937186831617
tp1033
Rp1034
(dp1035
g10
g11
sbag4
(g12
g6
F-74.47635413703249
tp1036
Rp1037
(dp1038
g10
g16
sbaa(lp1039
g4
(g5
g6
F40.66937105252163
tp1040
Rp1041
(dp1042
g10
g11
sbag4
(g12
g6
F-74.47635306561675
tp1043
Rp1044
(dp1045
g10
g16
sbaa(lp1046
g4
(g5
g6
F40.66937105252499
tp1047
Rp1048
(dp1049
g10
g11
sbag4
(g12
g6
F-74.47635199420543
tp1050
Rp1051
(dp1052
g10
g16
sbaa(lp1053
g4
(g5
g6
F40.66937105252832
tp1054
Rp1055
(dp1056
g10
g11
sbag4
(g12
g6
F-74.4763509227941
tp1057
Rp1058
(dp1059
g10
g16
sbaa(lp1060
g4
(g5
g6
F40.669371052531645
tp1061
Rp1062
(dp1063
g10
g11
sbag4
(g12
g6
F-74.47634985138278
tp1064
Rp1065
(dp1066
g10
g16
sbaa(lp1067
g4
(g5
g6
F40.669371052534956
tp1068
Rp1069
(dp1070
g10
g11
sbag4
(g12
g6
F-74.47634877997145
tp1071
Rp1072
(dp1073
g10
g16
sbaa(lp1074
g4
(g5
g6
F40.66937186833616
tp1075
Rp1076
(dp1077
g10
g11
sbag4
(g12
g6
F-74.47634770856446
tp1078
Rp1079
(dp1080
g10
g16
sbaa(lp1081
g4
(g5
g6
F40.66937268413734
tp1082
Rp1083
(dp1084
g10
g11
sbag4
(g12
g6
F-74.47634663715743
tp1085
Rp1086
(dp1087
g10
g16
sbaa(lp1088
g4
(g5
g6
F40.66937349993851
tp1089
Rp1090
(dp1091
g10
g11
sbag4
(g12
g6
F-74.47634556575039
tp1092
Rp1093
(dp1094
g10
g16
sbaa(lp1095
g4
(g5
g6
F40.669374315739674
tp1096
Rp1097
(dp1098
g10
g11
sbag4
(g12
g6
F-74.47634449434332
tp1099
Rp1100
(dp1101
g10
g16
sbaa(lp1102
g4
(g5
g6
F40.669374315742935
tp1103
Rp1104
(dp1105
g10
g11
sbag4
(g12
g6
F-74.47634342293195
tp1106
Rp1107
(dp1108
g10
g16
sbaa(lp1109
g4
(g5
g6
F40.669375131544086
tp1110
Rp1111
(dp1112
g10
g11
sbag4
(g12
g6
F-74.47634235152483
tp1113
Rp1114
(dp1115
g10
g16
sbaa(lp1116
g4
(g5
g6
F40.66937431574944
tp1117
Rp1118
(dp1119
g10
g11
sbag4
(g12
g6
F-74.4763412801092
tp1120
Rp1121
(dp1122
g10
g16
sbaa(lp1123
g4
(g5
g6
F40.66937431575268
tp1124
Rp1125
(dp1126
g10
g11
sbag4
(g12
g6
F-74.47634020869782
tp1127
Rp1128
(dp1129
g10
g16
sbaa(lp1130
g4
(g5
g6
F40.6693743157559
tp1131
Rp1132
(dp1133
g10
g11
sbag4
(g12
g6
F-74.47633913728643
tp1134
Rp1135
(dp1136
g10
g16
sbaa(lp1137
g4
(g5
g6
F40.669374315759114
tp1138
Rp1139
(dp1140
g10
g11
sbag4
(g12
g6
F-74.47633806587505
tp1141
Rp1142
(dp1143
g10
g16
sbaa(lp1144
g4
(g5
g6
F40.66937431576232
tp1145
Rp1146
(dp1147
g10
g11
sbag4
(g12
g6
F-74.47633699446368
tp1148
Rp1149
(dp1150
g10
g16
sbaa(lp1151
g4
(g5
g6
F40.669373499967634
tp1152
Rp1153
(dp1154
g10
g11
sbag4
(g12
g6
F-74.47633592304811
tp1155
Rp1156
(dp1157
g10
g16
sbaa(lp1158
g4
(g5
g6
F40.669373499970824
tp1159
Rp1160
(dp1161
g10
g11
sbag4
(g12
g6
F-74.47633485163675
tp1162
Rp1163
(dp1164
g10
g16
sbaa(lp1165
g4
(g5
g6
F40.66937349997399
tp1166
Rp1167
(dp1168
g10
g11
sbag4
(g12
g6
F-74.47633378022539
tp1169
Rp1170
(dp1171
g10
g16
sbaa(lp1172
g4
(g5
g6
F40.66937349997717
tp1173
Rp1174
(dp1175
g10
g11
sbag4
(g12
g6
F-74.47633270881401
tp1176
Rp1177
(dp1178
g10
g16
sbaa(lp1179
g4
(g5
g6
F40.66937349998032
tp1180
Rp1181
(dp1182
g10
g11
sbag4
(g12
g6
F-74.47633163740265
tp1183
Rp1184
(dp1185
g10
g16
sbaa(lp1186
g4
(g5
g6
F40.669374315781354
tp1187
Rp1188
(dp1189
g10
g11
sbag4
(g12
g6
F-74.47633056599541
tp1190
Rp1191
(dp1192
g10
g16
sbaa(lp1193
g4
(g5
g6
F40.66937513158238
tp1194
Rp1195
(dp1196
g10
g11
sbag4
(g12
g6
F-74.47632949458814
tp1197
Rp1198
(dp1199
g10
g16
sbaa(lp1200
g4
(g5
g6
F40.669375131585504
tp1201
Rp1202
(dp1203
g10
g11
sbag4
(g12
g6
F-74.47632842317675
tp1204
Rp1205
(dp1206
g10
g16
sbaa(lp1207
g4
(g5
g6
F40.66937513158862
tp1208
Rp1209
(dp1210
g10
g11
sbag4
(g12
g6
F-74.47632735176536
tp1211
Rp1212
(dp1213
g10
g16
sbaa(lp1214
g4
(g5
g6
F40.669374315793846
tp1215
Rp1216
(dp1217
g10
g11
sbag4
(g12
g6
F-74.47632628034991
tp1218
Rp1219
(dp1220
g10
g16
sbaa(lp1221
g4
(g5
g6
F40.669373499999054
tp1222
Rp1223
(dp1224
g10
g11
sbag4
(g12
g6
F-74.47632520893447
tp1225
Rp1226
(dp1227
g10
g16
sbaa(lp1228
g4
(g5
g6
F40.669372684204255
tp1229
Rp1230
(dp1231
g10
g11
sbag4
(g12
g6
F-74.47632413751906
tp1232
Rp1233
(dp1234
g10
g16
sbaa(lp1235
g4
(g5
g6
F40.669373500005214
tp1236
Rp1237
(dp1238
g10
g11
sbag4
(g12
g6
F-74.47632306611173
tp1239
Rp1240
(dp1241
g10
g16
sbaa(lp1242
g4
(g5
g6
F40.66937431580616
tp1243
Rp1244
(dp1245
g10
g11
sbag4
(g12
g6
F-74.47632199470439
tp1246
Rp1247
(dp1248
g10
g16
sbaa(lp1249
g4
(g5
g6
F40.66937513160712
tp1250
Rp1251
(dp1252
g10
g11
sbag4
(g12
g6
F-74.47632092329702
tp1253
Rp1254
(dp1255
g10
g16
sbaa(lp1256
g4
(g5
g6
F40.66937594740805
tp1257
Rp1258
(dp1259
g10
g11
sbag4
(g12
g6
F-74.47631985188963
tp1260
Rp1261
(dp1262
g10
g16
sbaa(lp1263
g4
(g5
g6
F40.66937594741108
tp1264
Rp1265
(dp1266
g10
g11
sbag4
(g12
g6
F-74.47631878047822
tp1267
Rp1268
(dp1269
g10
g16
sbaa(lp1270
g4
(g5
g6
F40.66937513161622
tp1271
Rp1272
(dp1273
g10
g11
sbag4
(g12
g6
F-74.47631770906284
tp1274
Rp1275
(dp1276
g10
g16
sbaa(lp1277
g4
(g5
g6
F40.66937431582136
tp1278
Rp1279
(dp1280
g10
g11
sbag4
(g12
g6
F-74.4763166376475
tp1281
Rp1282
(dp1283
g10
g16
sbaa(lp1284
g4
(g5
g6
F40.66937431582436
tp1285
Rp1286
(dp1287
g10
g11
sbag4
(g12
g6
F-74.47631556623612
tp1288
Rp1289
(dp1290
g10
g16
sbaa(lp1291
g4
(g5
g6
F40.669374315827355
tp1292
Rp1293
(dp1294
g10
g11
sbag4
(g12
g6
F-74.47631449482475
tp1295
Rp1296
(dp1297
g10
g16
sbaa(lp1298
g4
(g5
g6
F40.669374315830346
tp1299
Rp1300
(dp1301
g10
g11
sbag4
(g12
g6
F-74.47631342341337
tp1302
Rp1303
(dp1304
g10
g16
sbaa(lp1305
g4
(g5
g6
F40.669373500035434
tp1306
Rp1307
(dp1308
g10
g11
sbag4
(g12
g6
F-74.47631235199809
tp1309
Rp1310
(dp1311
g10
g16
sbaa(lp1312
g4
(g5
g6
F40.66937268424052
tp1313
Rp1314
(dp1315
g10
g11
sbag4
(g12
g6
F-74.47631128058283
tp1316
Rp1317
(dp1318
g10
g16
sbaa(lp1319
g4
(g5
g6
F40.66937186844559
tp1320
Rp1321
(dp1322
g10
g11
sbag4
(g12
g6
F-74.47631020916761
tp1323
Rp1324
(dp1325
g10
g16
sbaa(lp1326
g4
(g5
g6
F40.66937105265065
tp1327
Rp1328
(dp1329
g10
g11
sbag4
(g12
g6
F-74.4763091377524
tp1330
Rp1331
(dp1332
g10
g16
sbaa(lp1333
g4
(g5
g6
F40.6693702368557
tp1334
Rp1335
(dp1336
g10
g11
sbag4
(g12
g6
F-74.47630806633723
tp1337
Rp1338
(dp1339
g10
g16
sbaa(lp1340
g4
(g5
g6
F40.669369421060736
tp1341
Rp1342
(dp1343
g10
g11
sbag4
(g12
g6
F-74.47630699492207
tp1344
Rp1345
(dp1346
g10
g16
sbaa(lp1347
g4
(g5
g6
F40.66936942106366
tp1348
Rp1349
(dp1350
g10
g11
sbag4
(g12
g6
F-74.47630592351076
tp1351
Rp1352
(dp1353
g10
g16
sbaa(lp1354
g4
(g5
g6
F40.66937023686445
tp1355
Rp1356
(dp1357
g10
g11
sbag4
(g12
g6
F-74.47630485210328
tp1358
Rp1359
(dp1360
g10
g16
sbaa(lp1361
g4
(g5
g6
F40.669371052665234
tp1362
Rp1363
(dp1364
g10
g11
sbag4
(g12
g6
F-74.47630378069577
tp1365
Rp1366
(dp1367
g10
g16
sbaa(lp1368
g4
(g5
g6
F40.66937105266812
tp1369
Rp1370
(dp1371
g10
g11
sbag4
(g12
g6
F-74.47630270928444
tp1372
Rp1373
(dp1374
g10
g16
sbaa(lp1375
g4
(g5
g6
F40.66937105267099
tp1376
Rp1377
(dp1378
g10
g11
sbag4
(g12
g6
F-74.47630163787312
tp1379
Rp1380
(dp1381
g10
g16
sbaa(lp1382
g4
(g5
g6
F40.66937105267386
tp1383
Rp1384
(dp1385
g10
g11
sbag4
(g12
g6
F-74.47630056646179
tp1386
Rp1387
(dp1388
g10
g16
sbaa(lp1389
g4
(g5
g6
F40.66937105267673
tp1390
Rp1391
(dp1392
g10
g11
sbag4
(g12
g6
F-74.47629949505047
tp1393
Rp1394
(dp1395
g10
g16
sbaa(lp1396
g4
(g5
g6
F40.66937105267957
tp1397
Rp1398
(dp1399
g10
g11
sbag4
(g12
g6
F-74.47629842363914
tp1400
Rp1401
(dp1402
g10
g16
sbaa(lp1403
g4
(g5
g6
F40.6693718684803
tp1404
Rp1405
(dp1406
g10
g11
sbag4
(g12
g6
F-74.47629735223154
tp1407
Rp1408
(dp1409
g10
g16
sbaa(lp1410
g4
(g5
g6
F40.669372684278194
tp1411
Rp1412
(dp1413
g10
g11
sbag4
(g12
g6
F-74.47629735223525
tp1414
Rp1415
(dp1416
g10
g16
sbaa(lp1417
g4
(g5
g6
F40.66937350007607
tp1418
Rp1419
(dp1420
g10
g11
sbag4
(g12
g6
F-74.47629735223897
tp1421
Rp1422
(dp1423
g10
g16
sbaa(lp1424
g4
(g5
g6
F40.669374315876794
tp1425
Rp1426
(dp1427
g10
g11
sbag4
(g12
g6
F-74.47629628083132
tp1428
Rp1429
(dp1430
g10
g16
sbaa(lp1431
g4
(g5
g6
F40.6693751316775
tp1432
Rp1433
(dp1434
g10
g11
sbag4
(g12
g6
F-74.47629520942364
tp1435
Rp1436
(dp1437
g10
g16
sbaa(lp1438
g4
(g5
g6
F40.66937431588242
tp1439
Rp1440
(dp1441
g10
g11
sbag4
(g12
g6
F-74.47629413800857
tp1442
Rp1443
(dp1444
g10
g16
sbaa(lp1445
g4
(g5
g6
F40.66937350008733
tp1446
Rp1447
(dp1448
g10
g11
sbag4
(g12
g6
F-74.47629306659351
tp1449
Rp1450
(dp1451
g10
g16
sbaa(lp1452
g4
(g5
g6
F40.669373500090124
tp1453
Rp1454
(dp1455
g10
g11
sbag4
(g12
g6
F-74.47629199518215
tp1456
Rp1457
(dp1458
g10
g16
sbaa(lp1459
g4
(g5
g6
F40.669373500092895
tp1460
Rp1461
(dp1462
g10
g11
sbag4
(g12
g6
F-74.47629092377079
tp1463
Rp1464
(dp1465
g10
g16
sbaa(lp1466
g4
(g5
g6
F40.669374315893556
tp1467
Rp1468
(dp1469
g10
g11
sbag4
(g12
g6
F-74.47628985236305
tp1470
Rp1471
(dp1472
g10
g16
sbaa(lp1473
g4
(g5
g6
F40.669375131691446
tp1474
Rp1475
(dp1476
g10
g11
sbag4
(g12
g6
F-74.47628985236668
tp1477
Rp1478
(dp1479
g10
g16
sbaa(lp1480
g4
(g5
g6
F40.669375947492085
tp1481
Rp1482
(dp1483
g10
g11
sbag4
(g12
g6
F-74.47628878095891
tp1484
Rp1485
(dp1486
g10
g16
sbaa(lp1487
g4
(g5
g6
F40.669376763292725
tp1488
Rp1489
(dp1490
g10
g11
sbag4
(g12
g6
F-74.4762877095511
tp1491
Rp1492
(dp1493
g10
g16
sbaa(lp1494
g4
(g5
g6
F40.66937676329547
tp1495
Rp1496
(dp1497
g10
g11
sbag4
(g12
g6
F-74.47628663813968
tp1498
Rp1499
(dp1500
g10
g16
sbaa(lp1501
g4
(g5
g6
F40.669377579096086
tp1502
Rp1503
(dp1504
g10
g11
sbag4
(g12
g6
F-74.47628556673185
tp1505
Rp1506
(dp1507
g10
g16
sbaa(lp1508
g4
(g5
g6
F40.6693775790988
tp1509
Rp1510
(dp1511
g10
g11
sbag4
(g12
g6
F-74.47628449532041
tp1512
Rp1513
(dp1514
g10
g16
sbaa(lp1515
g4
(g5
g6
F40.66937757910151
tp1516
Rp1517
(dp1518
g10
g11
sbag4
(g12
g6
F-74.47628342390898
tp1519
Rp1520
(dp1521
g10
g16
sbaa(lp1522
g4
(g5
g6
F40.6693775791042
tp1523
Rp1524
(dp1525
g10
g11
sbag4
(g12
g6
F-74.47628235249756
tp1526
Rp1527
(dp1528
g10
g16
sbaa(lp1529
g4
(g5
g6
F40.6693775791069
tp1530
Rp1531
(dp1532
g10
g11
sbag4
(g12
g6
F-74.47628128108613
tp1533
Rp1534
(dp1535
g10
g16
sbaa(lp1536
g4
(g5
g6
F40.669377579109586
tp1537
Rp1538
(dp1539
g10
g11
sbag4
(g12
g6
F-74.4762802096747
tp1540
Rp1541
(dp1542
g10
g16
sbaa(lp1543
g4
(g5
g6
F40.66937839491014
tp1544
Rp1545
(dp1546
g10
g11
sbag4
(g12
g6
F-74.47627913826676
tp1547
Rp1548
(dp1549
g10
g16
sbaa(lp1550
g4
(g5
g6
F40.66937839491279
tp1551
Rp1552
(dp1553
g10
g11
sbag4
(g12
g6
F-74.47627806685531
tp1554
Rp1555
(dp1556
g10
g16
sbaa(lp1557
g4
(g5
g6
F40.66937839491544
tp1558
Rp1559
(dp1560
g10
g11
sbag4
(g12
g6
F-74.47627699544388
tp1561
Rp1562
(dp1563
g10
g16
sbaa(lp1564
g4
(g5
g6
F40.66937839491809
tp1565
Rp1566
(dp1567
g10
g11
sbag4
(g12
g6
F-74.47627592403244
tp1568
Rp1569
(dp1570
g10
g16
sbaa(lp1571
g4
(g5
g6
F40.66937839492071
tp1572
Rp1573
(dp1574
g10
g11
sbag4
(g12
g6
F-74.47627485262099
tp1575
Rp1576
(dp1577
g10
g16
sbaa(lp1578
g4
(g5
g6
F40.669378394923335
tp1579
Rp1580
(dp1581
g10
g11
sbag4
(g12
g6
F-74.47627378120954
tp1582
Rp1583
(dp1584
g10
g16
sbaa(lp1585
g4
(g5
g6
F40.66937839492594
tp1586
Rp1587
(dp1588
g10
g11
sbag4
(g12
g6
F-74.47627270979811
tp1589
Rp1590
(dp1591
g10
g16
sbaa(lp1592
g4
(g5
g6
F40.66937757913065
tp1593
Rp1594
(dp1595
g10
g11
sbag4
(g12
g6
F-74.47627163838325
tp1596
Rp1597
(dp1598
g10
g16
sbaa(lp1599
g4
(g5
g6
F40.66937757913324
tp1600
Rp1601
(dp1602
g10
g11
sbag4
(g12
g6
F-74.47627056697182
tp1603
Rp1604
(dp1605
g10
g16
sbaa(lp1606
g4
(g5
g6
F40.66937757913582
tp1607
Rp1608
(dp1609
g10
g11
sbag4
(g12
g6
F-74.47626949556039
tp1610
Rp1611
(dp1612
g10
g16
sbaa(lp1613
g4
(g5
g6
F40.6693775791384
tp1614
Rp1615
(dp1616
g10
g11
sbag4
(g12
g6
F-74.47626842414897
tp1617
Rp1618
(dp1619
g10
g16
sbaa(lp1620
g4
(g5
g6
F40.66937676334307
tp1621
Rp1622
(dp1623
g10
g11
sbag4
(g12
g6
F-74.47626735273418
tp1624
Rp1625
(dp1626
g10
g16
sbaa(lp1627
g4
(g5
g6
F40.66937676334561
tp1628
Rp1629
(dp1630
g10
g11
sbag4
(g12
g6
F-74.47626628132276
tp1631
Rp1632
(dp1633
g10
g16
sbaa(lp1634
g4
(g5
g6
F40.669376763348154
tp1635
Rp1636
(dp1637
g10
g11
sbag4
(g12
g6
F-74.47626520991135
tp1638
Rp1639
(dp1640
g10
g16
sbaa(lp1641
g4
(g5
g6
F40.66937676335069
tp1642
Rp1643
(dp1644
g10
g11
sbag4
(g12
g6
F-74.47626413849993
tp1645
Rp1646
(dp1647
g10
g16
sbaa(lp1648
g4
(g5
g6
F40.669376763353206
tp1649
Rp1650
(dp1651
g10
g11
sbag4
(g12
g6
F-74.47626306708851
tp1652
Rp1653
(dp1654
g10
g16
sbaa(lp1655
g4
(g5
g6
F40.669376763355714
tp1656
Rp1657
(dp1658
g10
g11
sbag4
(g12
g6
F-74.47626199567709
tp1659
Rp1660
(dp1661
g10
g16
sbaa(lp1662
g4
(g5
g6
F40.66937676335822
tp1663
Rp1664
(dp1665
g10
g11
sbag4
(g12
g6
F-74.47626092426567
tp1666
Rp1667
(dp1668
g10
g16
sbaa(lp1669
g4
(g5
g6
F40.6693775791586
tp1670
Rp1671
(dp1672
g10
g11
sbag4
(g12
g6
F-74.47625985285752
tp1673
Rp1674
(dp1675
g10
g16
sbaa(lp1676
g4
(g5
g6
F40.66937839495897
tp1677
Rp1678
(dp1679
g10
g11
sbag4
(g12
g6
F-74.47625878144935
tp1680
Rp1681
(dp1682
g10
g16
sbaa(lp1683
g4
(g5
g6
F40.66937921075933
tp1684
Rp1685
(dp1686
g10
g11
sbag4
(g12
g6
F-74.47625771004114
tp1687
Rp1688
(dp1689
g10
g16
sbaa(lp1690
g4
(g5
g6
F40.669380026559665
tp1691
Rp1692
(dp1693
g10
g11
sbag4
(g12
g6
F-74.4762566386329
tp1694
Rp1695
(dp1696
g10
g16
sbaa(lp1697
g4
(g5
g6
F40.66938002656212
tp1698
Rp1699
(dp1700
g10
g11
sbag4
(g12
g6
F-74.47625556722143
tp1701
Rp1702
(dp1703
g10
g16
sbaa(lp1704
g4
(g5
g6
F40.66938084236244
tp1705
Rp1706
(dp1707
g10
g11
sbag4
(g12
g6
F-74.47625449581317
tp1708
Rp1709
(dp1710
g10
g16
sbaa(lp1711
g4
(g5
g6
F40.66938165816277
tp1712
Rp1713
(dp1714
g10
g11
sbag4
(g12
g6
F-74.47625342440487
tp1715
Rp1716
(dp1717
g10
g16
sbaa(lp1718
g4
(g5
g6
F40.669381658165186
tp1719
Rp1720
(dp1721
g10
g11
sbag4
(g12
g6
F-74.47625235299337
tp1722
Rp1723
(dp1724
g10
g16
sbaa(lp1725
g4
(g5
g6
F40.669381658167595
tp1726
Rp1727
(dp1728
g10
g11
sbag4
(g12
g6
F-74.47625128158188
tp1729
Rp1730
(dp1731
g10
g16
sbaa(lp1732
g4
(g5
g6
F40.66938165817
tp1733
Rp1734
(dp1735
g10
g11
sbag4
(g12
g6
F-74.47625021017038
tp1736
Rp1737
(dp1738
g10
g16
sbaa(lp1739
g4
(g5
g6
F40.66938084237451
tp1740
Rp1741
(dp1742
g10
g11
sbag4
(g12
g6
F-74.47624913875575
tp1743
Rp1744
(dp1745
g10
g16
sbaa(lp1746
g4
(g5
g6
F40.66938002657899
tp1747
Rp1748
(dp1749
g10
g11
sbag4
(g12
g6
F-74.47624806734115
tp1750
Rp1751
(dp1752
g10
g16
sbaa(lp1753
g4
(g5
g6
F40.6693792107811
tp1754
Rp1755
(dp1756
g10
g11
sbag4
(g12
g6
F-74.47624806733803
tp1757
Rp1758
(dp1759
g10
g16
sbaa(lp1760
g4
(g5
g6
F40.66937839498559
tp1761
Rp1762
(dp1763
g10
g11
sbag4
(g12
g6
F-74.47624699592346
tp1764
Rp1765
(dp1766
g10
g16
sbaa(lp1767
g4
(g5
g6
F40.66937839498796
tp1768
Rp1769
(dp1770
g10
g11
sbag4
(g12
g6
F-74.47624592451203
tp1771
Rp1772
(dp1773
g10
g16
sbaa(lp1774
g4
(g5
g6
F40.6693792107882
tp1775
Rp1776
(dp1777
g10
g11
sbag4
(g12
g6
F-74.47624485310367
tp1778
Rp1779
(dp1780
g10
g16
sbaa(lp1781
g4
(g5
g6
F40.66938002658843
tp1782
Rp1783
(dp1784
g10
g11
sbag4
(g12
g6
F-74.47624378169527
tp1785
Rp1786
(dp1787
g10
g16
sbaa(lp1788
g4
(g5
g6
F40.66938084238864
tp1789
Rp1790
(dp1791
g10
g11
sbag4
(g12
g6
F-74.47624271028685
tp1792
Rp1793
(dp1794
g10
g16
sbaa(lp1795
g4
(g5
g6
F40.669381658188854
tp1796
Rp1797
(dp1798
g10
g11
sbag4
(g12
g6
F-74.47624163887842
tp1799
Rp1800
(dp1801
g10
g16
sbaa(lp1802
g4
(g5
g6
F40.66938247398904
tp1803
Rp1804
(dp1805
g10
g11
sbag4
(g12
g6
F-74.47624056746994
tp1806
Rp1807
(dp1808
g10
g16
sbaa(lp1809
g4
(g5
g6
F40.669382473991355
tp1810
Rp1811
(dp1812
g10
g11
sbag4
(g12
g6
F-74.47623949605844
tp1813
Rp1814
(dp1815
g10
g16
sbaa(lp1816
g4
(g5
g6
F40.66938247399364
tp1817
Rp1818
(dp1819
g10
g11
sbag4
(g12
g6
F-74.47623842464694
tp1820
Rp1821
(dp1822
g10
g16
sbaa(lp1823
g4
(g5
g6
F40.66938247399592
tp1824
Rp1825
(dp1826
g10
g11
sbag4
(g12
g6
F-74.47623735323542
tp1827
Rp1828
(dp1829
g10
g16
sbaa(lp1830
g4
(g5
g6
F40.6693824739982
tp1831
Rp1832
(dp1833
g10
g11
sbag4
(g12
g6
F-74.47623628182392
tp1834
Rp1835
(dp1836
g10
g16
sbaa(lp1837
g4
(g5
g6
F40.66938247400046
tp1838
Rp1839
(dp1840
g10
g11
sbag4
(g12
g6
F-74.47623521041241
tp1841
Rp1842
(dp1843
g10
g16
sbaa(lp1844
g4
(g5
g6
F40.66938247400271
tp1845
Rp1846
(dp1847
g10
g11
sbag4
(g12
g6
F-74.4762341390009
tp1848
Rp1849
(dp1850
g10
g16
sbaa(lp1851
g4
(g5
g6
F40.66938247400494
tp1852
Rp1853
(dp1854
g10
g11
sbag4
(g12
g6
F-74.47623306758939
tp1855
Rp1856
(dp1857
g10
g16
sbaa(lp1858
g4
(g5
g6
F40.66938328980506
tp1859
Rp1860
(dp1861
g10
g11
sbag4
(g12
g6
F-74.4762319961808
tp1862
Rp1863
(dp1864
g10
g16
sbaa(lp1865
g4
(g5
g6
F40.669384105605175
tp1866
Rp1867
(dp1868
g10
g11
sbag4
(g12
g6
F-74.4762309247722
tp1869
Rp1870
(dp1871
g10
g16
sbaa(lp1872
g4
(g5
g6
F40.66938492140527
tp1873
Rp1874
(dp1875
g10
g11
sbag4
(g12
g6
F-74.47622985336356
tp1876
Rp1877
(dp1878
g10
g16
sbaa(lp1879
g4
(g5
g6
F40.66938573720537
tp1880
Rp1881
(dp1882
g10
g11
sbag4
(g12
g6
F-74.4762287819549
tp1883
Rp1884
(dp1885
g10
g16
sbaa(lp1886
g4
(g5
g6
F40.66938573720755
tp1887
Rp1888
(dp1889
g10
g11
sbag4
(g12
g6
F-74.47622771054334
tp1890
Rp1891
(dp1892
g10
g16
sbaa(lp1893
g4
(g5
g6
F40.669386553007634
tp1894
Rp1895
(dp1896
g10
g11
sbag4
(g12
g6
F-74.47622663913464
tp1897
Rp1898
(dp1899
g10
g16
sbaa(lp1900
g4
(g5
g6
F40.669386553009794
tp1901
Rp1902
(dp1903
g10
g11
sbag4
(g12
g6
F-74.47622556772306
tp1904
Rp1905
(dp1906
g10
g16
sbaa(lp1907
g4
(g5
g6
F40.66938573721407
tp1908
Rp1909
(dp1910
g10
g11
sbag4
(g12
g6
F-74.47622449630865
tp1911
Rp1912
(dp1913
g10
g16
sbaa(lp1914
g4
(g5
g6
F40.669386553014114
tp1915
Rp1916
(dp1917
g10
g11
sbag4
(g12
g6
F-74.47622342489991
tp1918
Rp1919
(dp1920
g10
g16
sbaa(lp1921
g4
(g5
g6
F40.66938655301625
tp1922
Rp1923
(dp1924
g10
g11
sbag4
(g12
g6
F-74.47622235348834
tp1925
Rp1926
(dp1927
g10
g16
sbaa(lp1928
g4
(g5
g6
F40.66938736881627
tp1929
Rp1930
(dp1931
g10
g11
sbag4
(g12
g6
F-74.47622128207955
tp1932
Rp1933
(dp1934
g10
g16
sbaa(lp1935
g4
(g5
g6
F40.66938818461628
tp1936
Rp1937
(dp1938
g10
g11
sbag4
(g12
g6
F-74.47622021067075
tp1939
Rp1940
(dp1941
g10
g16
sbaa(lp1942
g4
(g5
g6
F40.669388184618384
tp1943
Rp1944
(dp1945
g10
g11
sbag4
(g12
g6
F-74.47621913925914
tp1946
Rp1947
(dp1948
g10
g16
sbaa(lp1949
g4
(g5
g6
F40.669388184620495
tp1950
Rp1951
(dp1952
g10
g11
sbag4
(g12
g6
F-74.47621806784755
tp1953
Rp1954
(dp1955
g10
g16
sbaa(lp1956
g4
(g5
g6
F40.6693873688247
tp1957
Rp1958
(dp1959
g10
g11
sbag4
(g12
g6
F-74.47621699643321
tp1960
Rp1961
(dp1962
g10
g16
sbaa(lp1963
g4
(g5
g6
F40.66938736882678
tp1964
Rp1965
(dp1966
g10
g11
sbag4
(g12
g6
F-74.47621592502162
tp1967
Rp1968
(dp1969
g10
g16
sbaa(lp1970
g4
(g5
g6
F40.66938736882886
tp1971
Rp1972
(dp1973
g10
g11
sbag4
(g12
g6
F-74.47621485361003
tp1974
Rp1975
(dp1976
g10
g16
sbaa(lp1977
g4
(g5
g6
F40.66938736883092
tp1978
Rp1979
(dp1980
g10
g11
sbag4
(g12
g6
F-74.47621378219844
tp1981
Rp1982
(dp1983
g10
g16
sbaa(lp1984
g4
(g5
g6
F40.66938655303508
tp1985
Rp1986
(dp1987
g10
g11
sbag4
(g12
g6
F-74.47621271078417
tp1988
Rp1989
(dp1990
g10
g16
sbaa(lp1991
g4
(g5
g6
F40.66938655303713
tp1992
Rp1993
(dp1994
g10
g11
sbag4
(g12
g6
F-74.4762116393726
tp1995
Rp1996
(dp1997
g10
g16
sbaa(lp1998
g4
(g5
g6
F40.66938573724128
tp1999
Rp2000
(dp2001
g10
g11
sbag4
(g12
g6
F-74.47621056795836
tp2002
Rp2003
(dp2004
g10
g16
sbaa(lp2005
g4
(g5
g6
F40.66938573724331
tp2006
Rp2007
(dp2008
g10
g11
sbag4
(g12
g6
F-74.4762094965468
tp2009
Rp2010
(dp2011
g10
g16
sbaa(lp2012
g4
(g5
g6
F40.669385737245314
tp2013
Rp2014
(dp2015
g10
g11
sbag4
(g12
g6
F-74.47620842513524
tp2016
Rp2017
(dp2018
g10
g16
sbaa(lp2019
g4
(g5
g6
F40.66938573724732
tp2020
Rp2021
(dp2022
g10
g11
sbag4
(g12
g6
F-74.47620735372368
tp2023
Rp2024
(dp2025
g10
g16
sbaa(lp2026
g4
(g5
g6
F40.66938492145142
tp2027
Rp2028
(dp2029
g10
g11
sbag4
(g12
g6
F-74.4762062823095
tp2030
Rp2031
(dp2032
g10
g16
sbaa(lp2033
g4
(g5
g6
F40.6693849214534
tp2034
Rp2035
(dp2036
g10
g11
sbag4
(g12
g6
F-74.47620521089796
tp2037
Rp2038
(dp2039
g10
g16
sbaa(lp2040
g4
(g5
g6
F40.669384921455375
tp2041
Rp2042
(dp2043
g10
g11
sbag4
(g12
g6
F-74.47620413948641
tp2044
Rp2045
(dp2046
g10
g16
sbaa(lp2047
g4
(g5
g6
F40.66938492145734
tp2048
Rp2049
(dp2050
g10
g11
sbag4
(g12
g6
F-74.47620306807487
tp2051
Rp2052
(dp2053
g10
g16
sbaa(lp2054
g4
(g5
g6
F40.6693849214593
tp2055
Rp2056
(dp2057
g10
g11
sbag4
(g12
g6
F-74.47620199666332
tp2058
Rp2059
(dp2060
g10
g16
sbaa(lp2061
g4
(g5
g6
F40.66938573725913
tp2062
Rp2063
(dp2064
g10
g11
sbag4
(g12
g6
F-74.47620092525432
tp2065
Rp2066
(dp2067
g10
g16
sbaa(lp2068
g4
(g5
g6
F40.66938655305894
tp2069
Rp2070
(dp2071
g10
g11
sbag4
(g12
g6
F-74.47619985384529
tp2072
Rp2073
(dp2074
g10
g16
sbaa(lp2075
g4
(g5
g6
F40.66938736885875
tp2076
Rp2077
(dp2078
g10
g11
sbag4
(g12
g6
F-74.47619878243623
tp2079
Rp2080
(dp2081
g10
g16
sbaa(lp2082
g4
(g5
g6
F40.66938818463773
tp2083
Rp2084
(dp2085
g10
g11
sbag4
(g12
g6
F-74.47619771095702
tp2086
Rp2087
(dp2088
g10
g16
sbaa(lp2089
g4
(g5
g6
F40.66938818463972
tp2090
Rp2091
(dp2092
g10
g11
sbag4
(g12
g6
F-74.47619663954606
tp2093
Rp2094
(dp2095
g10
g16
sbaa(lp2096
g4
(g5
g6
F40.6693881846417
tp2097
Rp2098
(dp2099
g10
g11
sbag4
(g12
g6
F-74.47619556813511
tp2100
Rp2101
(dp2102
g10
g16
sbaa(lp2103
g4
(g5
g6
F40.66938818464367
tp2104
Rp2105
(dp2106
g10
g11
sbag4
(g12
g6
F-74.47619449672416
tp2107
Rp2108
(dp2109
g10
g16
sbaa(lp2110
g4
(g5
g6
F40.66938900044347
tp2111
Rp2112
(dp2113
g10
g11
sbag4
(g12
g6
F-74.47619342531637
tp2114
Rp2115
(dp2116
g10
g16
sbaa(lp2117
g4
(g5
g6
F40.66938981624326
tp2118
Rp2119
(dp2120
g10
g11
sbag4
(g12
g6
F-74.47619235390856
tp2121
Rp2122
(dp2123
g10
g16
sbaa(lp2124
g4
(g5
g6
F40.6693898162452
tp2125
Rp2126
(dp2127
g10
g11
sbag4
(g12
g6
F-74.47619128249758
tp2128
Rp2129
(dp2130
g10
g16
sbaa(lp2131
g4
(g5
g6
F40.66938981624715
tp2132
Rp2133
(dp2134
g10
g11
sbag4
(g12
g6
F-74.4761902110866
tp2135
Rp2136
(dp2137
g10
g16
sbaa(lp2138
g4
(g5
g6
F40.66939063204693
tp2139
Rp2140
(dp2141
g10
g11
sbag4
(g12
g6
F-74.47618913967874
tp2142
Rp2143
(dp2144
g10
g16
sbaa(lp2145
g4
(g5
g6
F40.66939063204885
tp2146
Rp2147
(dp2148
g10
g11
sbag4
(g12
g6
F-74.47618806826775
tp2149
Rp2150
(dp2151
g10
g16
sbaa(lp2152
g4
(g5
g6
F40.669390632050764
tp2153
Rp2154
(dp2155
g10
g11
sbag4
(g12
g6
F-74.47618699685675
tp2156
Rp2157
(dp2158
g10
g16
sbaa(lp2159
g4
(g5
g6
F40.66939063205267
tp2160
Rp2161
(dp2162
g10
g11
sbag4
(g12
g6
F-74.47618592544575
tp2163
Rp2164
(dp2165
g10
g16
sbaa(lp2166
g4
(g5
g6
F40.669390632054565
tp2167
Rp2168
(dp2169
g10
g11
sbag4
(g12
g6
F-74.47618485403476
tp2170
Rp2171
(dp2172
g10
g16
sbaa(lp2173
g4
(g5
g6
F40.669390632056455
tp2174
Rp2175
(dp2176
g10
g11
sbag4
(g12
g6
F-74.47618378262376
tp2177
Rp2178
(dp2179
g10
g16
sbaa(lp2180
g4
(g5
g6
F40.66939063205833
tp2181
Rp2182
(dp2183
g10
g11
sbag4
(g12
g6
F-74.47618271121277
tp2184
Rp2185
(dp2186
g10
g16
sbaa(lp2187
g4
(g5
g6
F40.66939063206019
tp2188
Rp2189
(dp2190
g10
g11
sbag4
(g12
g6
F-74.47618163980178
tp2191
Rp2192
(dp2193
g10
g16
sbaa(lp2194
g4
(g5
g6
F40.66939063206206
tp2195
Rp2196
(dp2197
g10
g11
sbag4
(g12
g6
F-74.47618056839077
tp2198
Rp2199
(dp2200
g10
g16
sbaa(lp2201
g4
(g5
g6
F40.6693906320639
tp2202
Rp2203
(dp2204
g10
g11
sbag4
(g12
g6
F-74.47617949697978
tp2205
Rp2206
(dp2207
g10
g16
sbaa(lp2208
g4
(g5
g6
F40.669390632065756
tp2209
Rp2210
(dp2211
g10
g11
sbag4
(g12
g6
F-74.47617842556879
tp2212
Rp2213
(dp2214
g10
g16
sbaa(lp2215
g4
(g5
g6
F40.66938981626971
tp2216
Rp2217
(dp2218
g10
g11
sbag4
(g12
g6
F-74.47617735415483
tp2219
Rp2220
(dp2221
g10
g16
sbaa(lp2222
g4
(g5
g6
F40.66938981627153
tp2223
Rp2224
(dp2225
g10
g11
sbag4
(g12
g6
F-74.47617628274384
tp2226
Rp2227
(dp2228
g10
g16
sbaa(lp2229
g4
(g5
g6
F40.669389816273345
tp2230
Rp2231
(dp2232
g10
g11
sbag4
(g12
g6
F-74.47617521133286
tp2233
Rp2234
(dp2235
g10
g16
sbaa(lp2236
g4
(g5
g6
F40.66938981627515
tp2237
Rp2238
(dp2239
g10
g11
sbag4
(g12
g6
F-74.47617413992187
tp2240
Rp2241
(dp2242
g10
g16
sbaa(lp2243
g4
(g5
g6
F40.66938900047906
tp2244
Rp2245
(dp2246
g10
g11
sbag4
(g12
g6
F-74.47617306850798
tp2247
Rp2248
(dp2249
g10
g16
sbaa(lp2250
g4
(g5
g6
F40.66938900048084
tp2251
Rp2252
(dp2253
g10
g11
sbag4
(g12
g6
F-74.476171997097
tp2254
Rp2255
(dp2256
g10
g16
sbaa(lp2257
g4
(g5
g6
F40.66938900048262
tp2258
Rp2259
(dp2260
g10
g11
sbag4
(g12
g6
F-74.47617092568603
tp2261
Rp2262
(dp2263
g10
g16
sbaa(lp2264
g4
(g5
g6
F40.66938981628228
tp2265
Rp2266
(dp2267
g10
g11
sbag4
(g12
g6
F-74.47616985427794
tp2268
Rp2269
(dp2270
g10
g16
sbaa(lp2271
g4
(g5
g6
F40.66939063208018
tp2272
Rp2273
(dp2274
g10
g11
sbag4
(g12
g6
F-74.47616985428081
tp2275
Rp2276
(dp2277
g10
g16
sbaa(lp2278
g4
(g5
g6
F40.669391447878084
tp2279
Rp2280
(dp2281
g10
g11
sbag4
(g12
g6
F-74.47616985428368
tp2282
Rp2283
(dp2284
g10
g16
sbaa(lp2285
g4
(g5
g6
F40.66939226367777
tp2286
Rp2287
(dp2288
g10
g11
sbag4
(g12
g6
F-74.47616878287552
tp2289
Rp2290
(dp2291
g10
g16
sbaa(lp2292
g4
(g5
g6
F40.66939226367953
tp2293
Rp2294
(dp2295
g10
g11
sbag4
(g12
g6
F-74.47616771146448
tp2296
Rp2297
(dp2298
g10
g16
sbaa(lp2299
g4
(g5
g6
F40.66939226368128
tp2300
Rp2301
(dp2302
g10
g11
sbag4
(g12
g6
F-74.47616664005346
tp2303
Rp2304
(dp2305
g10
g16
sbaa(lp2306
g4
(g5
g6
F40.66939226368302
tp2307
Rp2308
(dp2309
g10
g11
sbag4
(g12
g6
F-74.47616556864243
tp2310
Rp2311
(dp2312
g10
g16
sbaa(lp2313
g4
(g5
g6
F40.66939226368476
tp2314
Rp2315
(dp2316
g10
g11
sbag4
(g12
g6
F-74.4761644972314
tp2317
Rp2318
(dp2319
g10
g16
sbaa(lp2320
g4
(g5
g6
F40.66939144788855
tp2321
Rp2322
(dp2323
g10
g11
sbag4
(g12
g6
F-74.47616342581759
tp2324
Rp2325
(dp2326
g10
g16
sbaa(lp2327
g4
(g5
g6
F40.66939063209063
tp2328
Rp2329
(dp2330
g10
g11
sbag4
(g12
g6
F-74.4761634258148
tp2331
Rp2332
(dp2333
g10
g16
sbaa(lp2334
g4
(g5
g6
F40.669389816294434
tp2335
Rp2336
(dp2337
g10
g11
sbag4
(g12
g6
F-74.47616235440103
tp2338
Rp2339
(dp2340
g10
g16
sbaa(lp2341
g4
(g5
g6
F40.66938900049822
tp2342
Rp2343
(dp2344
g10
g11
sbag4
(g12
g6
F-74.47616128298728
tp2345
Rp2346
(dp2347
g10
g16
sbaa(lp2348
g4
(g5
g6
F40.669388184701994
tp2349
Rp2350
(dp2351
g10
g11
sbag4
(g12
g6
F-74.47616021157356
tp2352
Rp2353
(dp2354
g10
g16
sbaa(lp2355
g4
(g5
g6
F40.66938818470367
tp2356
Rp2357
(dp2358
g10
g11
sbag4
(g12
g6
F-74.4761591401626
tp2359
Rp2360
(dp2361
g10
g16
sbaa(lp2362
g4
(g5
g6
F40.66938818470534
tp2363
Rp2364
(dp2365
g10
g11
sbag4
(g12
g6
F-74.47615806875163
tp2366
Rp2367
(dp2368
g10
g16
sbaa(lp2369
g4
(g5
g6
F40.669388184707
tp2370
Rp2371
(dp2372
g10
g11
sbag4
(g12
g6
F-74.47615699734067
tp2373
Rp2374
(dp2375
g10
g16
sbaa(lp2376
g4
(g5
g6
F40.66938900050658
tp2377
Rp2378
(dp2379
g10
g11
sbag4
(g12
g6
F-74.47615592593239
tp2380
Rp2381
(dp2382
g10
g16
sbaa(lp2383
g4
(g5
g6
F40.66938981630616
tp2384
Rp2385
(dp2386
g10
g11
sbag4
(g12
g6
F-74.47615485452408
tp2387
Rp2388
(dp2389
g10
g16
sbaa(lp2390
g4
(g5
g6
F40.66939063210573
tp2391
Rp2392
(dp2393
g10
g11
sbag4
(g12
g6
F-74.47615378311575
tp2394
Rp2395
(dp2396
g10
g16
sbaa(lp2397
g4
(g5
g6
F40.669391447905326
tp2398
Rp2399
(dp2400
g10
g11
sbag4
(g12
g6
F-74.47615271170737
tp2401
Rp2402
(dp2403
g10
g16
sbaa(lp2404
g4
(g5
g6
F40.6693922637049
tp2405
Rp2406
(dp2407
g10
g11
sbag4
(g12
g6
F-74.47615164029895
tp2408
Rp2409
(dp2410
g10
g16
sbaa(lp2411
g4
(g5
g6
F40.66939226370652
tp2412
Rp2413
(dp2414
g10
g11
sbag4
(g12
g6
F-74.4761505688879
tp2415
Rp2416
(dp2417
g10
g16
sbaa(lp2418
g4
(g5
g6
F40.66939226370814
tp2419
Rp2420
(dp2421
g10
g11
sbag4
(g12
g6
F-74.47614949747685
tp2422
Rp2423
(dp2424
g10
g16
sbaa(lp2425
g4
(g5
g6
F40.66939144791179
tp2426
Rp2427
(dp2428
g10
g11
sbag4
(g12
g6
F-74.47614842606325
tp2429
Rp2430
(dp2431
g10
g16
sbaa(lp2432
g4
(g5
g6
F40.669390632115416
tp2433
Rp2434
(dp2435
g10
g11
sbag4
(g12
g6
F-74.47614735464965
tp2436
Rp2437
(dp2438
g10
g16
sbaa(lp2439
g4
(g5
g6
F40.669390632117
tp2440
Rp2441
(dp2442
g10
g11
sbag4
(g12
g6
F-74.47614628323863
tp2443
Rp2444
(dp2445
g10
g16
sbaa(lp2446
g4
(g5
g6
F40.66939063211858
tp2447
Rp2448
(dp2449
g10
g11
sbag4
(g12
g6
F-74.47614521182761
tp2450
Rp2451
(dp2452
g10
g16
sbaa(lp2453
g4
(g5
g6
F40.66939063212014
tp2454
Rp2455
(dp2456
g10
g11
sbag4
(g12
g6
F-74.4761441404166
tp2457
Rp2458
(dp2459
g10
g16
sbaa(lp2460
g4
(g5
g6
F40.6693906321217
tp2461
Rp2462
(dp2463
g10
g11
sbag4
(g12
g6
F-74.47614306900557
tp2464
Rp2465
(dp2466
g10
g16
sbaa(lp2467
g4
(g5
g6
F40.66939063212325
tp2468
Rp2469
(dp2470
g10
g11
sbag4
(g12
g6
F-74.47614199759454
tp2471
Rp2472
(dp2473
g10
g16
sbaa(lp2474
g4
(g5
g6
F40.66938981632682
tp2475
Rp2476
(dp2477
g10
g11
sbag4
(g12
g6
F-74.47614092618105
tp2478
Rp2479
(dp2480
g10
g16
sbaa(lp2481
g4
(g5
g6
F40.66938900053039
tp2482
Rp2483
(dp2484
g10
g11
sbag4
(g12
g6
F-74.47613985476758
tp2485
Rp2486
(dp2487
g10
g16
sbaa(lp2488
g4
(g5
g6
F40.66938981632987
tp2489
Rp2490
(dp2491
g10
g11
sbag4
(g12
g6
F-74.47613878335902
tp2492
Rp2493
(dp2494
g10
g16
sbaa(lp2495
g4
(g5
g6
F40.66938981633138
tp2496
Rp2497
(dp2498
g10
g11
sbag4
(g12
g6
F-74.476137711948
tp2499
Rp2500
(dp2501
g10
g16
sbaa(lp2502
g4
(g5
g6
F40.66938981633289
tp2503
Rp2504
(dp2505
g10
g11
sbag4
(g12
g6
F-74.47613664053698
tp2506
Rp2507
(dp2508
g10
g16
sbaa(lp2509
g4
(g5
g6
F40.66938981633439
tp2510
Rp2511
(dp2512
g10
g11
sbag4
(g12
g6
F-74.47613556912596
tp2513
Rp2514
(dp2515
g10
g16
sbaa(lp2516
g4
(g5
g6
F40.66938981633587
tp2517
Rp2518
(dp2519
g10
g11
sbag4
(g12
g6
F-74.47613449771494
tp2520
Rp2521
(dp2522
g10
g16
sbaa(lp2523
g4
(g5
g6
F40.66939063213535
tp2524
Rp2525
(dp2526
g10
g11
sbag4
(g12
g6
F-74.47613342630626
tp2527
Rp2528
(dp2529
g10
g16
sbaa(lp2530
g4
(g5
g6
F40.669391447934814
tp2531
Rp2532
(dp2533
g10
g11
sbag4
(g12
g6
F-74.47613235489754
tp2534
Rp2535
(dp2536
g10
g16
sbaa(lp2537
g4
(g5
g6
F40.66939144793627
tp2538
Rp2539
(dp2540
g10
g11
sbag4
(g12
g6
F-74.47613128348648
tp2541
Rp2542
(dp2543
g10
g16
sbaa(lp2544
g4
(g5
g6
F40.66939144793774
tp2545
Rp2546
(dp2547
g10
g11
sbag4
(g12
g6
F-74.47613021207542
tp2548
Rp2549
(dp2550
g10
g16
sbaa(lp2551
g4
(g5
g6
F40.66939144793919
tp2552
Rp2553
(dp2554
g10
g11
sbag4
(g12
g6
F-74.47612914066434
tp2555
Rp2556
(dp2557
g10
g16
sbaa(lp2558
g4
(g5
g6
F40.66939144794063
tp2559
Rp2560
(dp2561
g10
g11
sbag4
(g12
g6
F-74.47612806925328
tp2562
Rp2563
(dp2564
g10
g16
sbaa(lp2565
g4
(g5
g6
F40.66939226374007
tp2566
Rp2567
(dp2568
g10
g11
sbag4
(g12
g6
F-74.47612699784443
tp2569
Rp2570
(dp2571
g10
g16
sbaa(lp2572
g4
(g5
g6
F40.66939307953809
tp2573
Rp2574
(dp2575
g10
g11
sbag4
(g12
g6
F-74.47612699784665
tp2576
Rp2577
(dp2578
g10
g16
sbaa(lp2579
g4
(g5
g6
F40.66939389533754
tp2580
Rp2581
(dp2582
g10
g11
sbag4
(g12
g6
F-74.47612592643773
tp2583
Rp2584
(dp2585
g10
g16
sbaa(lp2586
g4
(g5
g6
F40.66939471113698
tp2587
Rp2588
(dp2589
g10
g11
sbag4
(g12
g6
F-74.47612485502877
tp2590
Rp2591
(dp2592
g10
g16
sbaa(lp2593
g4
(g5
g6
F40.6693947111384
tp2594
Rp2595
(dp2596
g10
g11
sbag4
(g12
g6
F-74.47612378361761
tp2597
Rp2598
(dp2599
g10
g16
sbaa(lp2600
g4
(g5
g6
F40.66939552693783
tp2601
Rp2602
(dp2603
g10
g11
sbag4
(g12
g6
F-74.47612271220858
tp2604
Rp2605
(dp2606
g10
g16
sbaa(lp2607
g4
(g5
g6
F40.66939634273726
tp2608
Rp2609
(dp2610
g10
g11
sbag4
(g12
g6
F-74.47612164079949
tp2611
Rp2612
(dp2613
g10
g16
sbaa(lp2614
g4
(g5
g6
F40.66939715853668
tp2615
Rp2616
(dp2617
g10
g11
sbag4
(g12
g6
F-74.47612056939035
tp2618
Rp2619
(dp2620
g10
g16
sbaa(lp2621
g4
(g5
g6
F40.669397974336114
tp2622
Rp2623
(dp2624
g10
g11
sbag4
(g12
g6
F-74.47611949798116
tp2625
Rp2626
(dp2627
g10
g16
sbaa(lp2628
g4
(g5
g6
F40.669398790135524
tp2629
Rp2630
(dp2631
g10
g11
sbag4
(g12
g6
F-74.47611842657192
tp2632
Rp2633
(dp2634
g10
g16
sbaa(lp2635
g4
(g5
g6
F40.66939960593494
tp2636
Rp2637
(dp2638
g10
g11
sbag4
(g12
g6
F-74.47611735516261
tp2639
Rp2640
(dp2641
g10
g16
sbaa(lp2642
g4
(g5
g6
F40.66940042173434
tp2643
Rp2644
(dp2645
g10
g11
sbag4
(g12
g6
F-74.47611628375327
tp2646
Rp2647
(dp2648
g10
g16
sbaa(lp2649
g4
(g5
g6
F40.669401237532384
tp2650
Rp2651
(dp2652
g10
g11
sbag4
(g12
g6
F-74.47611628375522
tp2653
Rp2654
(dp2655
g10
g16
sbaa(lp2656
g4
(g5
g6
F40.66940205333177
tp2657
Rp2658
(dp2659
g10
g11
sbag4
(g12
g6
F-74.47611521234579
tp2660
Rp2661
(dp2662
g10
g16
sbaa(lp2663
g4
(g5
g6
F40.669402869129804
tp2664
Rp2665
(dp2666
g10
g11
sbag4
(g12
g6
F-74.4761152123477
tp2667
Rp2668
(dp2669
g10
g16
sbaa(lp2670
g4
(g5
g6
F40.669403684927865
tp2671
Rp2672
(dp2673
g10
g11
sbag4
(g12
g6
F-74.4761152123496
tp2674
Rp2675
(dp2676
g10
g16
sbaa(lp2677
g4
(g5
g6
F40.66940450072724
tp2678
Rp2679
(dp2680
g10
g11
sbag4
(g12
g6
F-74.47611414094006
tp2681
Rp2682
(dp2683
g10
g16
sbaa(lp2684
g4
(g5
g6
F40.66940531652529
tp2685
Rp2686
(dp2687
g10
g11
sbag4
(g12
g6
F-74.47611414094192
tp2688
Rp2689
(dp2690
g10
g16
sbaa(lp2691
g4
(g5
g6
F40.66940613232333
tp2692
Rp2693
(dp2694
g10
g11
sbag4
(g12
g6
F-74.47611414094378
tp2695
Rp2696
(dp2697
g10
g16
sbaa(lp2698
g4
(g5
g6
F40.669406948122706
tp2699
Rp2700
(dp2701
g10
g11
sbag4
(g12
g6
F-74.47611306953412
tp2702
Rp2703
(dp2704
g10
g16
sbaa(lp2705
g4
(g5
g6
F40.66940776392206
tp2706
Rp2707
(dp2708
g10
g11
sbag4
(g12
g6
F-74.47611199812441
tp2709
Rp2710
(dp2711
g10
g16
sbaa(lp2712
g4
(g5
g6
F40.66940776392336
tp2713
Rp2714
(dp2715
g10
g11
sbag4
(g12
g6
F-74.47611092671288
tp2716
Rp2717
(dp2718
g10
g16
sbaa(lp2719
g4
(g5
g6
F40.66940776392465
tp2720
Rp2721
(dp2722
g10
g11
sbag4
(g12
g6
F-74.47610985530133
tp2723
Rp2724
(dp2725
g10
g16
sbaa(lp2726
g4
(g5
g6
F40.66940694812791
tp2727
Rp2728
(dp2729
g10
g11
sbag4
(g12
g6
F-74.47610878388805
tp2730
Rp2731
(dp2732
g10
g16
sbaa(lp2733
g4
(g5
g6
F40.66940613233115
tp2734
Rp2735
(dp2736
g10
g11
sbag4
(g12
g6
F-74.47610771247479
tp2737
Rp2738
(dp2739
g10
g16
sbaa(lp2740
g4
(g5
g6
F40.669406132332405
tp2741
Rp2742
(dp2743
g10
g11
sbag4
(g12
g6
F-74.47610664106327
tp2744
Rp2745
(dp2746
g10
g16
sbaa(lp2747
g4
(g5
g6
F40.669406132333656
tp2748
Rp2749
(dp2750
g10
g11
sbag4
(g12
g6
F-74.47610556965174
tp2751
Rp2752
(dp2753
g10
g16
sbaa(lp2754
g4
(g5
g6
F40.66940613233489
tp2755
Rp2756
(dp2757
g10
g11
sbag4
(g12
g6
F-74.4761044982402
tp2758
Rp2759
(dp2760
g10
g16
sbaa(lp2761
g4
(g5
g6
F40.66940613233613
tp2762
Rp2763
(dp2764
g10
g11
sbag4
(g12
g6
F-74.47610342682866
tp2765
Rp2766
(dp2767
g10
g16
sbaa(lp2768
g4
(g5
g6
F40.66940613233734
tp2769
Rp2770
(dp2771
g10
g11
sbag4
(g12
g6
F-74.47610235541711
tp2772
Rp2773
(dp2774
g10
g16
sbaa(lp2775
g4
(g5
g6
F40.66940613233856
tp2776
Rp2777
(dp2778
g10
g11
sbag4
(g12
g6
F-74.47610128400557
tp2779
Rp2780
(dp2781
g10
g16
sbaa(lp2782
g4
(g5
g6
F40.66940613233975
tp2783
Rp2784
(dp2785
g10
g11
sbag4
(g12
g6
F-74.476100212594
tp2786
Rp2787
(dp2788
g10
g16
sbaa(lp2789
g4
(g5
g6
F40.66940613234093
tp2790
Rp2791
(dp2792
g10
g11
sbag4
(g12
g6
F-74.47609914118243
tp2793
Rp2794
(dp2795
g10
g16
sbaa(lp2796
g4
(g5
g6
F40.66940694814013
tp2797
Rp2798
(dp2799
g10
g11
sbag4
(g12
g6
F-74.47609806977239
tp2800
Rp2801
(dp2802
g10
g16
sbaa(lp2803
g4
(g5
g6
F40.66940776393932
tp2804
Rp2805
(dp2806
g10
g11
sbag4
(g12
g6
F-74.4760969983623
tp2807
Rp2808
(dp2809
g10
g16
sbaa(lp2810
g4
(g5
g6
F40.669407763940455
tp2811
Rp2812
(dp2813
g10
g11
sbag4
(g12
g6
F-74.47609592695066
tp2814
Rp2815
(dp2816
g10
g16
sbaa(lp2817
g4
(g5
g6
F40.669407763941585
tp2818
Rp2819
(dp2820
g10
g11
sbag4
(g12
g6
F-74.47609485553902
tp2821
Rp2822
(dp2823
g10
g16
sbaa(lp2824
g4
(g5
g6
F40.669408579740725
tp2825
Rp2826
(dp2827
g10
g11
sbag4
(g12
g6
F-74.47609378412882
tp2828
Rp2829
(dp2830
g10
g16
sbaa(lp2831
g4
(g5
g6
F40.66940939553984
tp2832
Rp2833
(dp2834
g10
g11
sbag4
(g12
g6
F-74.47609271271855
tp2835
Rp2836
(dp2837
g10
g16
sbaa(lp2838
g4
(g5
g6
F40.66941021133893
tp2839
Rp2840
(dp2841
g10
g11
sbag4
(g12
g6
F-74.47609164130824
tp2842
Rp2843
(dp2844
g10
g16
sbaa(lp2845
g4
(g5
g6
F40.66941021134
tp2846
Rp2847
(dp2848
g10
g11
sbag4
(g12
g6
F-74.47609056989651
tp2849
Rp2850
(dp2851
g10
g16
sbaa(lp2852
g4
(g5
g6
F40.66941102713905
tp2853
Rp2854
(dp2855
g10
g11
sbag4
(g12
g6
F-74.4760894984861
tp2856
Rp2857
(dp2858
g10
g16
sbaa(lp2859
g4
(g5
g6
F40.66941184293808
tp2860
Rp2861
(dp2862
g10
g11
sbag4
(g12
g6
F-74.47608842707565
tp2863
Rp2864
(dp2865
g10
g16
sbaa(lp2866
g4
(g5
g6
F40.669411842939105
tp2867
Rp2868
(dp2869
g10
g11
sbag4
(g12
g6
F-74.47608735566386
tp2870
Rp2871
(dp2872
g10
g16
sbaa(lp2873
g4
(g5
g6
F40.66941184294012
tp2874
Rp2875
(dp2876
g10
g11
sbag4
(g12
g6
F-74.47608628425206
tp2877
Rp2878
(dp2879
g10
g16
sbaa(lp2880
g4
(g5
g6
F40.66941184294112
tp2881
Rp2882
(dp2883
g10
g11
sbag4
(g12
g6
F-74.47608521284025
tp2884
Rp2885
(dp2886
g10
g16
sbaa(lp2887
g4
(g5
g6
F40.66941102714415
tp2888
Rp2889
(dp2890
g10
g11
sbag4
(g12
g6
F-74.4760841414272
tp2891
Rp2892
(dp2893
g10
g16
sbaa(lp2894
g4
(g5
g6
F40.66941021134715
tp2895
Rp2896
(dp2897
g10
g11
sbag4
(g12
g6
F-74.47608307001416
tp2898
Rp2899
(dp2900
g10
g16
sbaa(lp2901
g4
(g5
g6
F40.669410211348115
tp2902
Rp2903
(dp2904
g10
g11
sbag4
(g12
g6
F-74.47608199860237
tp2905
Rp2906
(dp2907
g10
g16
sbaa(lp2908
g4
(g5
g6
F40.66941102714702
tp2909
Rp2910
(dp2911
g10
g11
sbag4
(g12
g6
F-74.47608092719175
tp2912
Rp2913
(dp2914
g10
g16
sbaa(lp2915
g4
(g5
g6
F40.66941184294591
tp2916
Rp2917
(dp2918
g10
g11
sbag4
(g12
g6
F-74.47607985578108
tp2919
Rp2920
(dp2921
g10
g16
sbaa(lp2922
g4
(g5
g6
F40.669411842946836
tp2923
Rp2924
(dp2925
g10
g11
sbag4
(g12
g6
F-74.47607878436922
tp2926
Rp2927
(dp2928
g10
g16
sbaa(lp2929
g4
(g5
g6
F40.669411842947746
tp2930
Rp2931
(dp2932
g10
g11
sbag4
(g12
g6
F-74.47607771295736
tp2933
Rp2934
(dp2935
g10
g16
sbaa(lp2936
g4
(g5
g6
F40.66941184294862
tp2937
Rp2938
(dp2939
g10
g11
sbag4
(g12
g6
F-74.47607664154549
tp2940
Rp2941
(dp2942
g10
g16
sbaa(lp2943
g4
(g5
g6
F40.669411842949486
tp2944
Rp2945
(dp2946
g10
g11
sbag4
(g12
g6
F-74.47607557013362
tp2947
Rp2948
(dp2949
g10
g16
sbaa(lp2950
g4
(g5
g6
F40.66941102715241
tp2951
Rp2952
(dp2953
g10
g11
sbag4
(g12
g6
F-74.47607449872065
tp2954
Rp2955
(dp2956
g10
g16
sbaa(lp2957
g4
(g5
g6
F40.66941021135531
tp2958
Rp2959
(dp2960
g10
g11
sbag4
(g12
g6
F-74.47607342730772
tp2961
Rp2962
(dp2963
g10
g16
sbaa(lp2964
g4
(g5
g6
F40.66940939555821
tp2965
Rp2966
(dp2967
g10
g11
sbag4
(g12
g6
F-74.47607235589483
tp2968
Rp2969
(dp2970
g10
g16
sbaa(lp2971
g4
(g5
g6
F40.66940939555903
tp2972
Rp2973
(dp2974
g10
g11
sbag4
(g12
g6
F-74.47607128448297
tp2975
Rp2976
(dp2977
g10
g16
sbaa(lp2978
g4
(g5
g6
F40.66940857976191
tp2979
Rp2980
(dp2981
g10
g11
sbag4
(g12
g6
F-74.47607021307012
tp2982
Rp2983
(dp2984
g10
g16
sbaa(lp2985
g4
(g5
g6
F40.66940776396477
tp2986
Rp2987
(dp2988
g10
g11
sbag4
(g12
g6
F-74.47606914165728
tp2989
Rp2990
(dp2991
g10
g16
sbaa(lp2992
g4
(g5
g6
F40.66940694816684
tp2993
Rp2994
(dp2995
g10
g11
sbag4
(g12
g6
F-74.47606914165628
tp2996
Rp2997
(dp2998
g10
g16
sbaa(lp2999
g4
(g5
g6
F40.6694061323689
tp3000
Rp3001
(dp3002
g10
g11
sbag4
(g12
g6
F-74.47606914165527
tp3003
Rp3004
(dp3005
g10
g16
sbaa(lp3006
g4
(g5
g6
F40.669405316571755
tp3007
Rp3008
(dp3009
g10
g11
sbag4
(g12
g6
F-74.47606807024249
tp3010
Rp3011
(dp3012
g10
g16
sbaa(lp3013
g4
(g5
g6
F40.6694045007746
tp3014
Rp3015
(dp3016
g10
g11
sbag4
(g12
g6
F-74.47606699882974
tp3017
Rp3018
(dp3019
g10
g16
sbaa(lp3020
g4
(g5
g6
F40.669403684977425
tp3021
Rp3022
(dp3023
g10
g11
sbag4
(g12
g6
F-74.476065927417
tp3024
Rp3025
(dp3026
g10
g16
sbaa(lp3027
g4
(g5
g6
F40.66940286918025
tp3028
Rp3029
(dp3030
g10
g11
sbag4
(g12
g6
F-74.47606485600429
tp3031
Rp3032
(dp3033
g10
g16
sbaa(lp3034
g4
(g5
g6
F40.669402869181
tp3035
Rp3036
(dp3037
g10
g11
sbag4
(g12
g6
F-74.47606378459254
tp3038
Rp3039
(dp3040
g10
g16
sbaa(lp3041
g4
(g5
g6
F40.669402053383806
tp3042
Rp3043
(dp3044
g10
g11
sbag4
(g12
g6
F-74.47606271317986
tp3045
Rp3046
(dp3047
g10
g16
sbaa(lp3048
g4
(g5
g6
F40.66940205338452
tp3049
Rp3050
(dp3051
g10
g11
sbag4
(g12
g6
F-74.47606164176811
tp3052
Rp3053
(dp3054
g10
g16
sbaa(lp3055
g4
(g5
g6
F40.66940205338521
tp3056
Rp3057
(dp3058
g10
g11
sbag4
(g12
g6
F-74.47606057035635
tp3059
Rp3060
(dp3061
g10
g16
sbaa(lp3062
g4
(g5
g6
F40.66940205338591
tp3063
Rp3064
(dp3065
g10
g11
sbag4
(g12
g6
F-74.47605949894458
tp3066
Rp3067
(dp3068
g10
g16
sbaa(lp3069
g4
(g5
g6
F40.66940205338657
tp3070
Rp3071
(dp3072
g10
g11
sbag4
(g12
g6
F-74.4760584275328
tp3073
Rp3074
(dp3075
g10
g16
sbaa(lp3076
g4
(g5
g6
F40.66940123758933
tp3077
Rp3078
(dp3079
g10
g11
sbag4
(g12
g6
F-74.4760573561202
tp3080
Rp3081
(dp3082
g10
g16
sbaa(lp3083
g4
(g5
g6
F40.66940205338786
tp3084
Rp3085
(dp3086
g10
g11
sbag4
(g12
g6
F-74.47605628470923
tp3087
Rp3088
(dp3089
g10
g16
sbaa(lp3090
g4
(g5
g6
F40.669402869186385
tp3091
Rp3092
(dp3093
g10
g11
sbag4
(g12
g6
F-74.47605521329821
tp3094
Rp3095
(dp3096
g10
g16
sbaa(lp3097
g4
(g5
g6
F40.669402053389085
tp3098
Rp3099
(dp3100
g10
g11
sbag4
(g12
g6
F-74.47605414188563
tp3101
Rp3102
(dp3103
g10
g16
sbaa(lp3104
g4
(g5
g6
F40.669401237591785
tp3105
Rp3106
(dp3107
g10
g11
sbag4
(g12
g6
F-74.47605307047307
tp3108
Rp3109
(dp3110
g10
g16
sbaa(lp3111
g4
(g5
g6
F40.669400421794464
tp3112
Rp3113
(dp3114
g10
g11
sbag4
(g12
g6
F-74.47605199906053
tp3115
Rp3116
(dp3117
g10
g16
sbaa(lp3118
g4
(g5
g6
F40.669399605997135
tp3119
Rp3120
(dp3121
g10
g11
sbag4
(g12
g6
F-74.47605092764803
tp3122
Rp3123
(dp3124
g10
g16
sbaa(lp3125
g4
(g5
g6
F40.669400421795565
tp3126
Rp3127
(dp3128
g10
g11
sbag4
(g12
g6
F-74.47604985623695
tp3129
Rp3130
(dp3131
g10
g16
sbaa(lp3132
g4
(g5
g6
F40.66940042179609
tp3133
Rp3134
(dp3135
g10
g11
sbag4
(g12
g6
F-74.47604878482515
tp3136
Rp3137
(dp3138
g10
g16
sbaa(lp3139
g4
(g5
g6
F40.66940042179662
tp3140
Rp3141
(dp3142
g10
g11
sbag4
(g12
g6
F-74.47604771341335
tp3143
Rp3144
(dp3145
g10
g16
sbaa(lp3146
g4
(g5
g6
F40.6694004217971
tp3147
Rp3148
(dp3149
g10
g11
sbag4
(g12
g6
F-74.47604664200153
tp3150
Rp3151
(dp3152
g10
g16
sbaa(lp3153
g4
(g5
g6
F40.66939960599971
tp3154
Rp3155
(dp3156
g10
g11
sbag4
(g12
g6
F-74.47604557058908
tp3157
Rp3158
(dp3159
g10
g16
sbaa(lp3160
g4
(g5
g6
F40.66939879020231
tp3161
Rp3162
(dp3163
g10
g11
sbag4
(g12
g6
F-74.47604449917665
tp3164
Rp3165
(dp3166
g10
g16
sbaa(lp3167
g4
(g5
g6
F40.66939879020275
tp3168
Rp3169
(dp3170
g10
g11
sbag4
(g12
g6
F-74.47604342776486
tp3171
Rp3172
(dp3173
g10
g16
sbaa(lp3174
g4
(g5
g6
F40.66939879020318
tp3175
Rp3176
(dp3177
g10
g11
sbag4
(g12
g6
F-74.47604235635306
tp3178
Rp3179
(dp3180
g10
g16
sbaa(lp3181
g4
(g5
g6
F40.66939797440575
tp3182
Rp3183
(dp3184
g10
g11
sbag4
(g12
g6
F-74.47604128494068
tp3185
Rp3186
(dp3187
g10
g16
sbaa(lp3188
g4
(g5
g6
F40.669397974406145
tp3189
Rp3190
(dp3191
g10
g11
sbag4
(g12
g6
F-74.47604021352889
tp3192
Rp3193
(dp3194
g10
g16
sbaa(lp3195
g4
(g5
g6
F40.66939797440653
tp3196
Rp3197
(dp3198
g10
g11
sbag4
(g12
g6
F-74.4760391421171
tp3199
Rp3200
(dp3201
g10
g16
sbaa(lp3202
g4
(g5
g6
F40.669397974406905
tp3203
Rp3204
(dp3205
g10
g11
sbag4
(g12
g6
F-74.47603807070531
tp3206
Rp3207
(dp3208
g10
g16
sbaa(lp3209
g4
(g5
g6
F40.66939715860941
tp3210
Rp3211
(dp3212
g10
g11
sbag4
(g12
g6
F-74.47603699929299
tp3213
Rp3214
(dp3215
g10
g16
sbaa(lp3216
g4
(g5
g6
F40.6693963428119
tp3217
Rp3218
(dp3219
g10
g11
sbag4
(g12
g6
F-74.47603592788069
tp3220
Rp3221
(dp3222
g10
g16
sbaa(lp3223
g4
(g5
g6
F40.66939552701437
tp3224
Rp3225
(dp3226
g10
g11
sbag4
(g12
g6
F-74.47603485646842
tp3227
Rp3228
(dp3229
g10
g16
sbaa(lp3230
g4
(g5
g6
F40.66939552701469
tp3231
Rp3232
(dp3233
g10
g11
sbag4
(g12
g6
F-74.47603378505666
tp3234
Rp3235
(dp3236
g10
g16
sbaa(lp3237
g4
(g5
g6
F40.669395527014984
tp3238
Rp3239
(dp3240
g10
g11
sbag4
(g12
g6
F-74.4760327136449
tp3241
Rp3242
(dp3243
g10
g16
sbaa(lp3244
g4
(g5
g6
F40.66939552701526
tp3245
Rp3246
(dp3247
g10
g11
sbag4
(g12
g6
F-74.47603164223314
tp3248
Rp3249
(dp3250
g10
g16
sbaa(lp3251
g4
(g5
g6
F40.669395527015524
tp3252
Rp3253
(dp3254
g10
g11
sbag4
(g12
g6
F-74.47603057082137
tp3255
Rp3256
(dp3257
g10
g16
sbaa(lp3258
g4
(g5
g6
F40.669395527015766
tp3259
Rp3260
(dp3261
g10
g11
sbag4
(g12
g6
F-74.4760294994096
tp3262
Rp3263
(dp3264
g10
g16
sbaa(lp3265
g4
(g5
g6
F40.66939552701601
tp3266
Rp3267
(dp3268
g10
g11
sbag4
(g12
g6
F-74.47602842799785
tp3269
Rp3270
(dp3271
g10
g16
sbaa(lp3272
g4
(g5
g6
F40.66939471121839
tp3273
Rp3274
(dp3275
g10
g11
sbag4
(g12
g6
F-74.47602735658567
tp3276
Rp3277
(dp3278
g10
g16
sbaa(lp3279
g4
(g5
g6
F40.66939389542077
tp3280
Rp3281
(dp3282
g10
g11
sbag4
(g12
g6
F-74.47602628517353
tp3283
Rp3284
(dp3285
g10
g16
sbaa(lp3286
g4
(g5
g6
F40.66939471121878
tp3287
Rp3288
(dp3289
g10
g11
sbag4
(g12
g6
F-74.47602521376218
tp3290
Rp3291
(dp3292
g10
g16
sbaa(lp3293
g4
(g5
g6
F40.66939552701678
tp3294
Rp3295
(dp3296
g10
g11
sbag4
(g12
g6
F-74.47602414235081
tp3297
Rp3298
(dp3299
g10
g16
sbaa(lp3300
g4
(g5
g6
F40.66939471121911
tp3301
Rp3302
(dp3303
g10
g11
sbag4
(g12
g6
F-74.4760230709387
tp3304
Rp3305
(dp3306
g10
g16
sbaa(lp3307
g4
(g5
g6
F40.66939471121927
tp3308
Rp3309
(dp3310
g10
g11
sbag4
(g12
g6
F-74.47602199952696
tp3311
Rp3312
(dp3313
g10
g16
sbaa(lp3314
g4
(g5
g6
F40.669395527017215
tp3315
Rp3316
(dp3317
g10
g11
sbag4
(g12
g6
F-74.47602092811556
tp3318
Rp3319
(dp3320
g10
g16
sbaa(lp3321
g4
(g5
g6
F40.66939634281504
tp3322
Rp3323
(dp3324
g10
g11
sbag4
(g12
g6
F-74.47602092811589
tp3325
Rp3326
(dp3327
g10
g16
sbaa(lp3328
g4
(g5
g6
F40.66939715861285
tp3329
Rp3330
(dp3331
g10
g11
sbag4
(g12
g6
F-74.47602092811623
tp3332
Rp3333
(dp3334
g10
g16
sbaa(lp3335
g4
(g5
g6
F40.66939797441068
tp3336
Rp3337
(dp3338
g10
g11
sbag4
(g12
g6
F-74.47602092811655
tp3339
Rp3340
(dp3341
g10
g16
sbaa(lp3342
g4
(g5
g6
F40.66939879020861
tp3343
Rp3344
(dp3345
g10
g11
sbag4
(g12
g6
F-74.47601985670511
tp3346
Rp3347
(dp3348
g10
g16
sbaa(lp3349
g4
(g5
g6
F40.669399606006536
tp3350
Rp3351
(dp3352
g10
g11
sbag4
(g12
g6
F-74.47601878529362
tp3353
Rp3354
(dp3355
g10
g16
sbaa(lp3356
g4
(g5
g6
F40.669399606006635
tp3357
Rp3358
(dp3359
g10
g11
sbag4
(g12
g6
F-74.47601771388183
tp3360
Rp3361
(dp3362
g10
g16
sbaa(lp3363
g4
(g5
g6
F40.669398790208916
tp3364
Rp3365
(dp3366
g10
g11
sbag4
(g12
g6
F-74.47601664246974
tp3367
Rp3368
(dp3369
g10
g16
sbaa(lp3370
g4
(g5
g6
F40.66939960600681
tp3371
Rp3372
(dp3373
g10
g11
sbag4
(g12
g6
F-74.47601557105826
tp3374
Rp3375
(dp3376
g10
g16
sbaa(lp3377
g4
(g5
g6
F40.66939879020907
tp3378
Rp3379
(dp3380
g10
g11
sbag4
(g12
g6
F-74.47601449964621
tp3381
Rp3382
(dp3383
g10
g16
sbaa(lp3384
g4
(g5
g6
F40.669398790209144
tp3385
Rp3386
(dp3387
g10
g11
sbag4
(g12
g6
F-74.47601342823444
tp3388
Rp3389
(dp3390
g10
g16
sbaa(lp3391
g4
(g5
g6
F40.66939879020919
tp3392
Rp3393
(dp3394
g10
g11
sbag4
(g12
g6
F-74.47601235682268
tp3395
Rp3396
(dp3397
g10
g16
sbaa(lp3398
g4
(g5
g6
F40.669399606007076
tp3399
Rp3400
(dp3401
g10
g11
sbag4
(g12
g6
F-74.47601128541116
tp3402
Rp3403
(dp3404
g10
g16
sbaa(lp3405
g4
(g5
g6
F40.66940042180494
tp3406
Rp3407
(dp3408
g10
g11
sbag4
(g12
g6
F-74.4760102139996
tp3409
Rp3410
(dp3411
g10
g16
sbaa(lp3412
g4
(g5
g6
F40.669399606007154
tp3413
Rp3414
(dp3415
g10
g11
sbag4
(g12
g6
F-74.47600914258763
tp3416
Rp3417
(dp3418
g10
g16
sbaa(lp3419
g4
(g5
g6
F40.66939960600719
tp3420
Rp3421
(dp3422
g10
g11
sbag4
(g12
g6
F-74.47600807117588
tp3423
Rp3424
(dp3425
g10
g16
sbaa(lp3426
g4
(g5
g6
F40.66939960600722
tp3427
Rp3428
(dp3429
g10
g11
sbag4
(g12
g6
F-74.47600699976414
tp3430
Rp3431
(dp3432
g10
g16
sbaa(lp3433
g4
(g5
g6
F40.66939960600725
tp3434
Rp3435
(dp3436
g10
g11
sbag4
(g12
g6
F-74.4760059283524
tp3437
Rp3438
(dp3439
g10
g16
sbaa(lp3440
g4
(g5
g6
F40.66939960600727
tp3441
Rp3442
(dp3443
g10
g11
sbag4
(g12
g6
F-74.47600485694065
tp3444
Rp3445
(dp3446
g10
g16
sbaa(lp3447
g4
(g5
g6
F40.66940042180512
tp3448
Rp3449
(dp3450
g10
g11
sbag4
(g12
g6
F-74.47600378552906
tp3451
Rp3452
(dp3453
g10
g16
sbaa(lp3454
g4
(g5
g6
F40.66940042180513
tp3455
Rp3456
(dp3457
g10
g11
sbag4
(g12
g6
F-74.47600271411731
tp3458
Rp3459
(dp3460
g10
g16
sbaa(lp3461
g4
(g5
g6
F40.669401237602976
tp3462
Rp3463
(dp3464
g10
g11
sbag4
(g12
g6
F-74.47600164270568
tp3465
Rp3466
(dp3467
g10
g16
sbaa(lp3468
g4
(g5
g6
F40.66940123760298
tp3469
Rp3470
(dp3471
g10
g11
sbag4
(g12
g6
F-74.47600057129394
tp3472
Rp3473
(dp3474
g10
g16
sbaa(lp3475
g4
(g5
g6
F40.66940123760299
tp3476
Rp3477
(dp3478
g10
g11
sbag4
(g12
g6
F-74.47599949988219
tp3479
Rp3480
(dp3481
g10
g16
sbaa(lp3482
g4
(g5
g6
F40.66940205340082
tp3483
Rp3484
(dp3485
g10
g11
sbag4
(g12
g6
F-74.47599842847052
tp3486
Rp3487
(dp3488
g10
g16
sbaa(lp3489
g4
(g5
g6
F40.66940205340084
tp3490
Rp3491
(dp3492
g10
g11
sbag4
(g12
g6
F-74.47599735705876
tp3493
Rp3494
(dp3495
g10
g16
sbaa(lp3496
g4
(g5
g6
F40.669402053400844
tp3497
Rp3498
(dp3499
g10
g11
sbag4
(g12
g6
F-74.47599628564701
tp3500
Rp3501
(dp3502
g10
g16
sbaa(lp3503
g4
(g5
g6
F40.669402053400844
tp3504
Rp3505
(dp3506
g10
g11
sbag4
(g12
g6
F-74.47599521423525
tp3507
Rp3508
(dp3509
g10
g16
sbaa(lp3510
g4
(g5
g6
F40.66940205340085
tp3511
Rp3512
(dp3513
g10
g11
sbag4
(g12
g6
F-74.47599414282351
tp3514
Rp3515
(dp3516
g10
g16
sbaa(lp3517
g4
(g5
g6
F40.66940205340086
tp3518
Rp3519
(dp3520
g10
g11
sbag4
(g12
g6
F-74.47599307141175
tp3521
Rp3522
(dp3523
g10
g16
sbaa(lp3524
g4
(g5
g6
F40.66940205340086
tp3525
Rp3526
(dp3527
g10
g11
sbag4
(g12
g6
F-74.475992
tp3528
Rp3529
(dp3530
g10
g16
sbaa(lp3531
g4
(g5
g6
F40.66940205340086
tp3532
Rp3533
(dp3534
g10
g11
sbag4
(g12
g6
F-74.47599092858826
tp3535
Rp3536
(dp3537
g10
g16
sbaa(lp3538
g4
(g5
g6
F40.66940286919868
tp3539
Rp3540
(dp3541
g10
g11
sbag4
(g12
g6
F-74.47598985717647
tp3542
Rp3543
(dp3544
g10
g16
sbaa(lp3545
g4
(g5
g6
F40.6694036849965
tp3546
Rp3547
(dp3548
g10
g11
sbag4
(g12
g6
F-74.47598878576467
tp3549
Rp3550
(dp3551
g10
g16
sbaa(lp3552
g4
(g5
g6
F40.669403684996496
tp3553
Rp3554
(dp3555
g10
g11
sbag4
(g12
g6
F-74.4759877143529
tp3556
Rp3557
(dp3558
g10
g16
sbaa(lp3559
g4
(g5
g6
F40.669403684996496
tp3560
Rp3561
(dp3562
g10
g11
sbag4
(g12
g6
F-74.47598664294111
tp3563
Rp3564
(dp3565
g10
g16
sbaa(lp3566
g4
(g5
g6
F40.66940368499648
tp3567
Rp3568
(dp3569
g10
g11
sbag4
(g12
g6
F-74.47598557152934
tp3570
Rp3571
(dp3572
g10
g16
sbaa(lp3573
g4
(g5
g6
F40.669403684996475
tp3574
Rp3575
(dp3576
g10
g11
sbag4
(g12
g6
F-74.47598450011755
tp3577
Rp3578
(dp3579
g10
g16
sbaa(lp3580
g4
(g5
g6
F40.66940368499646
tp3581
Rp3582
(dp3583
g10
g11
sbag4
(g12
g6
F-74.47598342870576
tp3584
Rp3585
(dp3586
g10
g16
sbaa(lp3587
g4
(g5
g6
F40.66940368499645
tp3588
Rp3589
(dp3590
g10
g11
sbag4
(g12
g6
F-74.47598235729397
tp3591
Rp3592
(dp3593
g10
g16
sbaa(lp3594
g4
(g5
g6
F40.66940368499644
tp3595
Rp3596
(dp3597
g10
g11
sbag4
(g12
g6
F-74.47598128588218
tp3598
Rp3599
(dp3600
g10
g16
sbaa(lp3601
g4
(g5
g6
F40.66940368499641
tp3602
Rp3603
(dp3604
g10
g11
sbag4
(g12
g6
F-74.47598021447038
tp3605
Rp3606
(dp3607
g10
g16
sbaa(lp3608
g4
(g5
g6
F40.66940368499639
tp3609
Rp3610
(dp3611
g10
g11
sbag4
(g12
g6
F-74.4759791430586
tp3612
Rp3613
(dp3614
g10
g16
sbaa(lp3615
g4
(g5
g6
F40.66940368499636
tp3616
Rp3617
(dp3618
g10
g11
sbag4
(g12
g6
F-74.4759780716468
tp3619
Rp3620
(dp3621
g10
g16
sbaa(lp3622
g4
(g5
g6
F40.66940368499634
tp3623
Rp3624
(dp3625
g10
g11
sbag4
(g12
g6
F-74.47597700023498
tp3626
Rp3627
(dp3628
g10
g16
sbaa(lp3629
g4
(g5
g6
F40.669404500794116
tp3630
Rp3631
(dp3632
g10
g11
sbag4
(g12
g6
F-74.47597592882298
tp3633
Rp3634
(dp3635
g10
g16
sbaa(lp3636
g4
(g5
g6
F40.66940531659194
tp3637
Rp3638
(dp3639
g10
g11
sbag4
(g12
g6
F-74.47597592882279
tp3640
Rp3641
(dp3642
g10
g16
sbaa(lp3643
g4
(g5
g6
F40.669406132389724
tp3644
Rp3645
(dp3646
g10
g11
sbag4
(g12
g6
F-74.47597485741075
tp3647
Rp3648
(dp3649
g10
g16
sbaa(lp3650
g4
(g5
g6
F40.669406132389675
tp3651
Rp3652
(dp3653
g10
g11
sbag4
(g12
g6
F-74.47597378599889
tp3654
Rp3655
(dp3656
g10
g16
sbaa(lp3657
g4
(g5
g6
F40.6694053165918
tp3658
Rp3659
(dp3660
g10
g11
sbag4
(g12
g6
F-74.47597271458726
tp3661
Rp3662
(dp3663
g10
g16
sbaa(lp3664
g4
(g5
g6
F40.66940450079393
tp3665
Rp3666
(dp3667
g10
g11
sbag4
(g12
g6
F-74.47597164317564
tp3668
Rp3669
(dp3670
g10
g16
sbaa(lp3671
g4
(g5
g6
F40.66940450079386
tp3672
Rp3673
(dp3674
g10
g11
sbag4
(g12
g6
F-74.4759705717638
tp3675
Rp3676
(dp3677
g10
g16
sbaa(lp3678
g4
(g5
g6
F40.6694053165916
tp3679
Rp3680
(dp3681
g10
g11
sbag4
(g12
g6
F-74.47596950035168
tp3682
Rp3683
(dp3684
g10
g16
sbaa(lp3685
g4
(g5
g6
F40.66940531659153
tp3686
Rp3687
(dp3688
g10
g11
sbag4
(g12
g6
F-74.47596842893982
tp3689
Rp3690
(dp3691
g10
g16
sbaa(lp3692
g4
(g5
g6
F40.669406132389256
tp3693
Rp3694
(dp3695
g10
g11
sbag4
(g12
g6
F-74.47596735752767
tp3696
Rp3697
(dp3698
g10
g16
sbaa(lp3699
g4
(g5
g6
F40.66940694818699
tp3700
Rp3701
(dp3702
g10
g11
sbag4
(g12
g6
F-74.47596628611547
tp3703
Rp3704
(dp3705
g10
g16
sbaa(lp3706
g4
(g5
g6
F40.66940694818688
tp3707
Rp3708
(dp3709
g10
g11
sbag4
(g12
g6
F-74.47596521470356
tp3710
Rp3711
(dp3712
g10
g16
sbaa(lp3713
g4
(g5
g6
F40.66940694818677
tp3714
Rp3715
(dp3716
g10
g11
sbag4
(g12
g6
F-74.47596414329166
tp3717
Rp3718
(dp3719
g10
g16
sbaa(lp3720
g4
(g5
g6
F40.66940694818665
tp3721
Rp3722
(dp3723
g10
g11
sbag4
(g12
g6
F-74.47596307187975
tp3724
Rp3725
(dp3726
g10
g16
sbaa(lp3727
g4
(g5
g6
F40.66940694818652
tp3728
Rp3729
(dp3730
g10
g11
sbag4
(g12
g6
F-74.47596200046783
tp3731
Rp3732
(dp3733
g10
g16
sbaa(lp3734
g4
(g5
g6
F40.66940694818638
tp3735
Rp3736
(dp3737
g10
g11
sbag4
(g12
g6
F-74.47596092905592
tp3738
Rp3739
(dp3740
g10
g16
sbaa(lp3741
g4
(g5
g6
F40.66940776398403
tp3742
Rp3743
(dp3744
g10
g11
sbag4
(g12
g6
F-74.47595985764362
tp3745
Rp3746
(dp3747
g10
g16
sbaa(lp3748
g4
(g5
g6
F40.669407763983884
tp3749
Rp3750
(dp3751
g10
g11
sbag4
(g12
g6
F-74.47595878623169
tp3752
Rp3753
(dp3754
g10
g16
sbaa(lp3755
g4
(g5
g6
F40.6694077639837
tp3756
Rp3757
(dp3758
g10
g11
sbag4
(g12
g6
F-74.47595771481974
tp3759
Rp3760
(dp3761
g10
g16
sbaa(lp3762
g4
(g5
g6
F40.669406948185696
tp3763
Rp3764
(dp3765
g10
g11
sbag4
(g12
g6
F-74.47595664340821
tp3766
Rp3767
(dp3768
g10
g16
sbaa(lp3769
g4
(g5
g6
F40.669406132387685
tp3770
Rp3771
(dp3772
g10
g11
sbag4
(g12
g6
F-74.47595557199669
tp3773
Rp3774
(dp3775
g10
g16
sbaa(lp3776
g4
(g5
g6
F40.669406132387465
tp3777
Rp3778
(dp3779
g10
g11
sbag4
(g12
g6
F-74.47595450058478
tp3780
Rp3781
(dp3782
g10
g16
sbaa(lp3783
g4
(g5
g6
F40.66940694818506
tp3784
Rp3785
(dp3786
g10
g11
sbag4
(g12
g6
F-74.47595342917239
tp3787
Rp3788
(dp3789
g10
g16
sbaa(lp3790
g4
(g5
g6
F40.66940776398265
tp3791
Rp3792
(dp3793
g10
g11
sbag4
(g12
g6
F-74.47595235776
tp3794
Rp3795
(dp3796
g10
g16
sbaa(lp3797
g4
(g5
g6
F40.6694077639824
tp3798
Rp3799
(dp3800
g10
g11
sbag4
(g12
g6
F-74.47595128634804
tp3801
Rp3802
(dp3803
g10
g16
sbaa(lp3804
g4
(g5
g6
F40.66940857977996
tp3805
Rp3806
(dp3807
g10
g11
sbag4
(g12
g6
F-74.4759502149356
tp3808
Rp3809
(dp3810
g10
g16
sbaa(lp3811
g4
(g5
g6
F40.66940939557752
tp3812
Rp3813
(dp3814
g10
g11
sbag4
(g12
g6
F-74.47594914352314
tp3815
Rp3816
(dp3817
g10
g16
sbaa(lp3818
g4
(g5
g6
F40.66940939557723
tp3819
Rp3820
(dp3821
g10
g11
sbag4
(g12
g6
F-74.47594807211115
tp3822
Rp3823
(dp3824
g10
g16
sbaa(lp3825
g4
(g5
g6
F40.669409395576935
tp3826
Rp3827
(dp3828
g10
g11
sbag4
(g12
g6
F-74.47594700069916
tp3829
Rp3830
(dp3831
g10
g16
sbaa(lp3832
g4
(g5
g6
F40.669409395576615
tp3833
Rp3834
(dp3835
g10
g11
sbag4
(g12
g6
F-74.47594592928718
tp3836
Rp3837
(dp3838
g10
g16
sbaa(lp3839
g4
(g5
g6
F40.669410211374114
tp3840
Rp3841
(dp3842
g10
g11
sbag4
(g12
g6
F-74.47594485787465
tp3843
Rp3844
(dp3845
g10
g16
sbaa(lp3846
g4
(g5
g6
F40.66941102717195
tp3847
Rp3848
(dp3849
g10
g11
sbag4
(g12
g6
F-74.4759448578741
tp3850
Rp3851
(dp3852
g10
g16
sbaa(lp3853
g4
(g5
g6
F40.66941184296977
tp3854
Rp3855
(dp3856
g10
g11
sbag4
(g12
g6
F-74.47594485787354
tp3857
Rp3858
(dp3859
g10
g16
sbaa(lp3860
g4
(g5
g6
F40.669412658767605
tp3861
Rp3862
(dp3863
g10
g11
sbag4
(g12
g6
F-74.475944857873
tp3864
Rp3865
(dp3866
g10
g16
sbaa(lp3867
g4
(g5
g6
F40.6694134745651
tp3868
Rp3869
(dp3870
g10
g11
sbag4
(g12
g6
F-74.47594378646039
tp3871
Rp3872
(dp3873
g10
g16
sbaa(lp3874
g4
(g5
g6
F40.66941429036257
tp3875
Rp3876
(dp3877
g10
g11
sbag4
(g12
g6
F-74.47594271504776
tp3878
Rp3879
(dp3880
g10
g16
sbaa(lp3881
g4
(g5
g6
F40.66941429036221
tp3882
Rp3883
(dp3884
g10
g11
sbag4
(g12
g6
F-74.47594164363571
tp3885
Rp3886
(dp3887
g10
g16
sbaa(lp3888
g4
(g5
g6
F40.66941429036183
tp3889
Rp3890
(dp3891
g10
g11
sbag4
(g12
g6
F-74.47594057222365
tp3892
Rp3893
(dp3894
g10
g16
sbaa(lp3895
g4
(g5
g6
F40.66941510615927
tp3896
Rp3897
(dp3898
g10
g11
sbag4
(g12
g6
F-74.47593950081097
tp3899
Rp3900
(dp3901
g10
g16
sbaa(lp3902
g4
(g5
g6
F40.66941510615887
tp3903
Rp3904
(dp3905
g10
g11
sbag4
(g12
g6
F-74.4759384293989
tp3906
Rp3907
(dp3908
g10
g16
sbaa(lp3909
g4
(g5
g6
F40.66941510615845
tp3910
Rp3911
(dp3912
g10
g11
sbag4
(g12
g6
F-74.47593735798682
tp3913
Rp3914
(dp3915
g10
g16
sbaa(lp3916
g4
(g5
g6
F40.66941429036019
tp3917
Rp3918
(dp3919
g10
g11
sbag4
(g12
g6
F-74.4759362865754
tp3920
Rp3921
(dp3922
g10
g16
sbaa(lp3923
g4
(g5
g6
F40.66941429035973
tp3924
Rp3925
(dp3926
g10
g11
sbag4
(g12
g6
F-74.47593521516335
tp3927
Rp3928
(dp3929
g10
g16
sbaa(lp3930
g4
(g5
g6
F40.669413474561416
tp3931
Rp3932
(dp3933
g10
g11
sbag4
(g12
g6
F-74.47593414375197
tp3934
Rp3935
(dp3936
g10
g16
sbaa(lp3937
g4
(g5
g6
F40.66941265876307
tp3938
Rp3939
(dp3940
g10
g11
sbag4
(g12
g6
F-74.47593307234064
tp3941
Rp3942
(dp3943
g10
g16
sbaa(lp3944
g4
(g5
g6
F40.66941184296471
tp3945
Rp3946
(dp3947
g10
g11
sbag4
(g12
g6
F-74.47593200092932
tp3948
Rp3949
(dp3950
g10
g16
sbaa(lp3951
g4
(g5
g6
F40.66941102716685
tp3952
Rp3953
(dp3954
g10
g11
sbag4
(g12
g6
F-74.47593200093004
tp3955
Rp3956
(dp3957
g10
g16
sbaa(lp3958
g4
(g5
g6
F40.66941021136846
tp3959
Rp3960
(dp3961
g10
g11
sbag4
(g12
g6
F-74.47593092951878
tp3962
Rp3963
(dp3964
g10
g16
sbaa(lp3965
g4
(g5
g6
F40.66941021136792
tp3966
Rp3967
(dp3968
g10
g11
sbag4
(g12
g6
F-74.47592985810681
tp3969
Rp3970
(dp3971
g10
g16
sbaa(lp3972
g4
(g5
g6
F40.669409395569474
tp3973
Rp3974
(dp3975
g10
g11
sbag4
(g12
g6
F-74.47592878669562
tp3976
Rp3977
(dp3978
g10
g16
sbaa(lp3979
g4
(g5
g6
F40.669409395568884
tp3980
Rp3981
(dp3982
g10
g11
sbag4
(g12
g6
F-74.47592771528367
tp3983
Rp3984
(dp3985
g10
g16
sbaa(lp3986
g4
(g5
g6
F40.669409395568294
tp3987
Rp3988
(dp3989
g10
g11
sbag4
(g12
g6
F-74.47592664387173
tp3990
Rp3991
(dp3992
g10
g16
sbaa(lp3993
g4
(g5
g6
F40.66940939556767
tp3994
Rp3995
(dp3996
g10
g11
sbag4
(g12
g6
F-74.47592557245979
tp3997
Rp3998
(dp3999
g10
g16
sbaa(lp4000
g4
(g5
g6
F40.669409395567044
tp4001
Rp4002
(dp4003
g10
g11
sbag4
(g12
g6
F-74.47592450104786
tp4004
Rp4005
(dp4006
g10
g16
sbaa(lp4007
g4
(g5
g6
F40.66940939556639
tp4008
Rp4009
(dp4010
g10
g11
sbag4
(g12
g6
F-74.47592342963594
tp4011
Rp4012
(dp4013
g10
g16
sbaa(lp4014
g4
(g5
g6
F40.669410211363626
tp4015
Rp4016
(dp4017
g10
g11
sbag4
(g12
g6
F-74.47592235822316
tp4018
Rp4019
(dp4020
g10
g16
sbaa(lp4021
g4
(g5
g6
F40.669409395565054
tp4022
Rp4023
(dp4024
g10
g11
sbag4
(g12
g6
F-74.47592128681211
tp4025
Rp4026
(dp4027
g10
g16
sbaa(lp4028
g4
(g5
g6
F40.669408579767136
tp4029
Rp4030
(dp4031
g10
g11
sbag4
(g12
g6
F-74.47592128681299
tp4032
Rp4033
(dp4034
g10
g16
sbaa(lp4035
g4
(g5
g6
F40.669407763968536
tp4036
Rp4037
(dp4038
g10
g11
sbag4
(g12
g6
F-74.475920215402
tp4039
Rp4040
(dp4041
g10
g16
sbaa(lp4042
g4
(g5
g6
F40.66940694817061
tp4043
Rp4044
(dp4045
g10
g11
sbag4
(g12
g6
F-74.47592021540291
tp4046
Rp4047
(dp4048
g10
g16
sbaa(lp4049
g4
(g5
g6
F40.66940613237197
tp4050
Rp4051
(dp4052
g10
g11
sbag4
(g12
g6
F-74.47591914399197
tp4053
Rp4054
(dp4055
g10
g16
sbaa(lp4056
g4
(g5
g6
F40.66940613237123
tp4057
Rp4058
(dp4059
g10
g11
sbag4
(g12
g6
F-74.47591807258016
tp4060
Rp4061
(dp4062
g10
g16
sbaa(lp4063
g4
(g5
g6
F40.66940613237046
tp4064
Rp4065
(dp4066
g10
g11
sbag4
(g12
g6
F-74.47591700116834
tp4067
Rp4068
(dp4069
g10
g16
sbaa(lp4070
g4
(g5
g6
F40.66940613236969
tp4071
Rp4072
(dp4073
g10
g11
sbag4
(g12
g6
F-74.47591592975654
tp4074
Rp4075
(dp4076
g10
g16
sbaa(lp4077
g4
(g5
g6
F40.669406132368906
tp4078
Rp4079
(dp4080
g10
g11
sbag4
(g12
g6
F-74.47591485834474
tp4081
Rp4082
(dp4083
g10
g16
sbaa(lp4084
g4
(g5
g6
F40.66940694816603
tp4085
Rp4086
(dp4087
g10
g11
sbag4
(g12
g6
F-74.47591378693193
tp4088
Rp4089
(dp4090
g10
g16
sbaa(lp4091
g4
(g5
g6
F40.669406132367264
tp4092
Rp4093
(dp4094
g10
g11
sbag4
(g12
g6
F-74.47591271552116
tp4095
Rp4096
(dp4097
g10
g16
sbaa(lp4098
g4
(g5
g6
F40.66940531656847
tp4099
Rp4100
(dp4101
g10
g11
sbag4
(g12
g6
F-74.47591164411044
tp4102
Rp4103
(dp4104
g10
g16
sbaa(lp4105
g4
(g5
g6
F40.66940450076966
tp4106
Rp4107
(dp4108
g10
g11
sbag4
(g12
g6
F-74.47591057269977
tp4109
Rp4110
(dp4111
g10
g16
sbaa(lp4112
g4
(g5
g6
F40.66940368497081
tp4113
Rp4114
(dp4115
g10
g11
sbag4
(g12
g6
F-74.47590950128917
tp4116
Rp4117
(dp4118
g10
g16
sbaa(lp4119
g4
(g5
g6
F40.66940368496993
tp4120
Rp4121
(dp4122
g10
g11
sbag4
(g12
g6
F-74.47590842987746
tp4123
Rp4124
(dp4125
g10
g16
sbaa(lp4126
g4
(g5
g6
F40.66940450076699
tp4127
Rp4128
(dp4129
g10
g11
sbag4
(g12
g6
F-74.47590735846464
tp4130
Rp4131
(dp4132
g10
g16
sbaa(lp4133
g4
(g5
g6
F40.669405316564045
tp4134
Rp4135
(dp4136
g10
g11
sbag4
(g12
g6
F-74.47590628705177
tp4137
Rp4138
(dp4139
g10
g16
sbaa(lp4140
g4
(g5
g6
F40.66940531656311
tp4141
Rp4142
(dp4143
g10
g11
sbag4
(g12
g6
F-74.47590521564007
tp4144
Rp4145
(dp4146
g10
g16
sbaa(lp4147
g4
(g5
g6
F40.66940531656216
tp4148
Rp4149
(dp4150
g10
g11
sbag4
(g12
g6
F-74.47590414422837
tp4151
Rp4152
(dp4153
g10
g16
sbaa(lp4154
g4
(g5
g6
F40.66940531656122
tp4155
Rp4156
(dp4157
g10
g11
sbag4
(g12
g6
F-74.47590307281668
tp4158
Rp4159
(dp4160
g10
g16
sbaa(lp4161
g4
(g5
g6
F40.66940531656024
tp4162
Rp4163
(dp4164
g10
g11
sbag4
(g12
g6
F-74.47590200140499
tp4165
Rp4166
(dp4167
g10
g16
sbaa(lp4168
g4
(g5
g6
F40.66940531655925
tp4169
Rp4170
(dp4171
g10
g11
sbag4
(g12
g6
F-74.47590092999332
tp4172
Rp4173
(dp4174
g10
g16
sbaa(lp4175
g4
(g5
g6
F40.669406132356244
tp4176
Rp4177
(dp4178
g10
g11
sbag4
(g12
g6
F-74.47589985858036
tp4179
Rp4180
(dp4181
g10
g16
sbaa(lp4182
g4
(g5
g6
F40.66940531655724
tp4183
Rp4184
(dp4185
g10
g11
sbag4
(g12
g6
F-74.47589878716998
tp4186
Rp4187
(dp4188
g10
g16
sbaa(lp4189
g4
(g5
g6
F40.669405316556215
tp4190
Rp4191
(dp4192
g10
g11
sbag4
(g12
g6
F-74.47589771575834
tp4193
Rp4194
(dp4195
g10
g16
sbaa(lp4196
g4
(g5
g6
F40.66940531655517
tp4197
Rp4198
(dp4199
g10
g11
sbag4
(g12
g6
F-74.47589664434669
tp4200
Rp4201
(dp4202
g10
g16
sbaa(lp4203
g4
(g5
g6
F40.669404500756116
tp4204
Rp4205
(dp4206
g10
g11
sbag4
(g12
g6
F-74.47589557293642
tp4207
Rp4208
(dp4209
g10
g16
sbaa(lp4210
g4
(g5
g6
F40.66940450075504
tp4211
Rp4212
(dp4213
g10
g11
sbag4
(g12
g6
F-74.47589450152482
tp4214
Rp4215
(dp4216
g10
g16
sbaa(lp4217
g4
(g5
g6
F40.66940450075396
tp4218
Rp4219
(dp4220
g10
g11
sbag4
(g12
g6
F-74.47589343011322
tp4221
Rp4222
(dp4223
g10
g16
sbaa(lp4224
g4
(g5
g6
F40.66940450075286
tp4225
Rp4226
(dp4227
g10
g11
sbag4
(g12
g6
F-74.47589235870163
tp4228
Rp4229
(dp4230
g10
g16
sbaa(lp4231
g4
(g5
g6
F40.66940450075176
tp4232
Rp4233
(dp4234
g10
g11
sbag4
(g12
g6
F-74.47589128729005
tp4235
Rp4236
(dp4237
g10
g16
sbaa(lp4238
g4
(g5
g6
F40.669404500750645
tp4239
Rp4240
(dp4241
g10
g11
sbag4
(g12
g6
F-74.47589021587848
tp4242
Rp4243
(dp4244
g10
g16
sbaa(lp4245
g4
(g5
g6
F40.66940368495149
tp4246
Rp4247
(dp4248
g10
g11
sbag4
(g12
g6
F-74.47588914446841
tp4249
Rp4250
(dp4251
g10
g16
sbaa(lp4252
g4
(g5
g6
F40.66940286915233
tp4253
Rp4254
(dp4255
g10
g11
sbag4
(g12
g6
F-74.4758880730584
tp4256
Rp4257
(dp4258
g10
g16
sbaa(lp4259
g4
(g5
g6
F40.6694020533543
tp4260
Rp4261
(dp4262
g10
g11
sbag4
(g12
g6
F-74.47588807305995
tp4263
Rp4264
(dp4265
g10
g16
sbaa(lp4266
g4
(g5
g6
F40.6694012375551
tp4267
Rp4268
(dp4269
g10
g11
sbag4
(g12
g6
F-74.47588700165002
tp4270
Rp4271
(dp4272
g10
g16
sbaa(lp4273
g4
(g5
g6
F40.66940042175588
tp4274
Rp4275
(dp4276
g10
g11
sbag4
(g12
g6
F-74.47588593024017
tp4277
Rp4278
(dp4279
g10
g16
sbaa(lp4280
g4
(g5
g6
F40.66939960595667
tp4281
Rp4282
(dp4283
g10
g11
sbag4
(g12
g6
F-74.47588485883036
tp4284
Rp4285
(dp4286
g10
g16
sbaa(lp4287
g4
(g5
g6
F40.66939960595547
tp4288
Rp4289
(dp4290
g10
g11
sbag4
(g12
g6
F-74.47588378741895
tp4291
Rp4292
(dp4293
g10
g16
sbaa(lp4294
g4
(g5
g6
F40.66939960595427
tp4295
Rp4296
(dp4297
g10
g11
sbag4
(g12
g6
F-74.47588271600756
tp4298
Rp4299
(dp4300
g10
g16
sbaa(lp4301
g4
(g5
g6
F40.66939879015501
tp4302
Rp4303
(dp4304
g10
g11
sbag4
(g12
g6
F-74.47588164459788
tp4305
Rp4306
(dp4307
g10
g16
sbaa(lp4308
g4
(g5
g6
F40.66939797435573
tp4309
Rp4310
(dp4311
g10
g11
sbag4
(g12
g6
F-74.47588057318823
tp4312
Rp4313
(dp4314
g10
g16
sbaa(lp4315
g4
(g5
g6
F40.66939715855644
tp4316
Rp4317
(dp4318
g10
g11
sbag4
(g12
g6
F-74.47587950177866
tp4319
Rp4320
(dp4321
g10
g16
sbaa(lp4322
g4
(g5
g6
F40.66939634275841
tp4323
Rp4324
(dp4325
g10
g11
sbag4
(g12
g6
F-74.47587950178044
tp4326
Rp4327
(dp4328
g10
g16
sbaa(lp4329
g4
(g5
g6
F40.66939552696036
tp4330
Rp4331
(dp4332
g10
g11
sbag4
(g12
g6
F-74.47587950178222
tp4333
Rp4334
(dp4335
g10
g16
sbaa(lp4336
g4
(g5
g6
F40.66939471116106
tp4337
Rp4338
(dp4339
g10
g11
sbag4
(g12
g6
F-74.47587843037276
tp4340
Rp4341
(dp4342
g10
g16
sbaa(lp4343
g4
(g5
g6
F40.669394711159796
tp4344
Rp4345
(dp4346
g10
g11
sbag4
(g12
g6
F-74.47587735896153
tp4347
Rp4348
(dp4349
g10
g16
sbaa(lp4350
g4
(g5
g6
F40.66939389536049
tp4351
Rp4352
(dp4353
g10
g11
sbag4
(g12
g6
F-74.47587628755215
tp4354
Rp4355
(dp4356
g10
g16
sbaa(lp4357
g4
(g5
g6
F40.669393895359214
tp4358
Rp4359
(dp4360
g10
g11
sbag4
(g12
g6
F-74.47587521614093
tp4361
Rp4362
(dp4363
g10
g16
sbaa(lp4364
g4
(g5
g6
F40.66939389535793
tp4365
Rp4366
(dp4367
g10
g11
sbag4
(g12
g6
F-74.47587414472974
tp4368
Rp4369
(dp4370
g10
g16
sbaa(lp4371
g4
(g5
g6
F40.669393895356635
tp4372
Rp4373
(dp4374
g10
g11
sbag4
(g12
g6
F-74.47587307331854
tp4375
Rp4376
(dp4377
g10
g16
sbaa(lp4378
g4
(g5
g6
F40.66939389535533
tp4379
Rp4380
(dp4381
g10
g11
sbag4
(g12
g6
F-74.47587200190735
tp4382
Rp4383
(dp4384
g10
g16
sbaa(lp4385
g4
(g5
g6
F40.66939389535401
tp4386
Rp4387
(dp4388
g10
g11
sbag4
(g12
g6
F-74.47587093049617
tp4389
Rp4390
(dp4391
g10
g16
sbaa(lp4392
g4
(g5
g6
F40.66939307955465
tp4393
Rp4394
(dp4395
g10
g11
sbag4
(g12
g6
F-74.47586985908697
tp4396
Rp4397
(dp4398
g10
g16
sbaa(lp4399
g4
(g5
g6
F40.66939226375661
tp4400
Rp4401
(dp4402
g10
g11
sbag4
(g12
g6
F-74.47586985908897
tp4403
Rp4404
(dp4405
g10
g16
sbaa(lp4406
g4
(g5
g6
F40.66939144795859
tp4407
Rp4408
(dp4409
g10
g11
sbag4
(g12
g6
F-74.47586985909098
tp4410
Rp4411
(dp4412
g10
g16
sbaa(lp4413
g4
(g5
g6
F40.66939063215923
tp4414
Rp4415
(dp4416
g10
g11
sbag4
(g12
g6
F-74.47586878768189
tp4417
Rp4418
(dp4419
g10
g16
sbaa(lp4420
g4
(g5
g6
F40.66938981636119
tp4421
Rp4422
(dp4423
g10
g11
sbag4
(g12
g6
F-74.47586878768394
tp4424
Rp4425
(dp4426
g10
g16
sbaa(lp4427
g4
(g5
g6
F40.66938900056184
tp4428
Rp4429
(dp4430
g10
g11
sbag4
(g12
g6
F-74.47586771627493
tp4431
Rp4432
(dp4433
g10
g16
sbaa(lp4434
g4
(g5
g6
F40.66938818476248
tp4435
Rp4436
(dp4437
g10
g11
sbag4
(g12
g6
F-74.47586664486597
tp4438
Rp4439
(dp4440
g10
g16
sbaa(lp4441
g4
(g5
g6
F40.66938818476114
tp4442
Rp4443
(dp4444
g10
g11
sbag4
(g12
g6
F-74.47586557345495
tp4445
Rp4446
(dp4447
g10
g16
sbaa(lp4448
g4
(g5
g6
F40.669388184759775
tp4449
Rp4450
(dp4451
g10
g11
sbag4
(g12
g6
F-74.47586450204392
tp4452
Rp4453
(dp4454
g10
g16
sbaa(lp4455
g4
(g5
g6
F40.66938818475841
tp4456
Rp4457
(dp4458
g10
g11
sbag4
(g12
g6
F-74.4758634306329
tp4459
Rp4460
(dp4461
g10
g16
sbaa(lp4462
g4
(g5
g6
F40.66938818475704
tp4463
Rp4464
(dp4465
g10
g11
sbag4
(g12
g6
F-74.47586235922188
tp4466
Rp4467
(dp4468
g10
g16
sbaa(lp4469
g4
(g5
g6
F40.66938818475567
tp4470
Rp4471
(dp4472
g10
g11
sbag4
(g12
g6
F-74.47586128781086
tp4473
Rp4474
(dp4475
g10
g16
sbaa(lp4476
g4
(g5
g6
F40.66938736895627
tp4477
Rp4478
(dp4479
g10
g11
sbag4
(g12
g6
F-74.47586021640205
tp4480
Rp4481
(dp4482
g10
g16
sbaa(lp4483
g4
(g5
g6
F40.66938655315688
tp4484
Rp4485
(dp4486
g10
g11
sbag4
(g12
g6
F-74.4758591449933
tp4487
Rp4488
(dp4489
g10
g16
sbaa(lp4490
g4
(g5
g6
F40.669385737357494
tp4491
Rp4492
(dp4493
g10
g11
sbag4
(g12
g6
F-74.47585807358459
tp4494
Rp4495
(dp4496
g10
g16
sbaa(lp4497
g4
(g5
g6
F40.669384921558105
tp4498
Rp4499
(dp4500
g10
g11
sbag4
(g12
g6
F-74.47585700217591
tp4501
Rp4502
(dp4503
g10
g16
sbaa(lp4504
g4
(g5
g6
F40.66938410576013
tp4505
Rp4506
(dp4507
g10
g11
sbag4
(g12
g6
F-74.47585700217822
tp4508
Rp4509
(dp4510
g10
g16
sbaa(lp4511
g4
(g5
g6
F40.66938328996356
tp4512
Rp4513
(dp4514
g10
g11
sbag4
(g12
g6
F-74.47585807359143
tp4515
Rp4516
(dp4517
g10
g16
sbaa(lp4518
g4
(g5
g6
F40.669382474165594
tp4519
Rp4520
(dp4521
g10
g11
sbag4
(g12
g6
F-74.47585807359371
tp4522
Rp4523
(dp4524
g10
g16
sbaa(lp4525
g4
(g5
g6
F40.669381658366234
tp4526
Rp4527
(dp4528
g10
g11
sbag4
(g12
g6
F-74.47585700218514
tp4529
Rp4530
(dp4531
g10
g16
sbaa(lp4532
g4
(g5
g6
F40.66938084256689
tp4533
Rp4534
(dp4535
g10
g11
sbag4
(g12
g6
F-74.47585593077659
tp4536
Rp4537
(dp4538
g10
g16
sbaa(lp4539
g4
(g5
g6
F40.66938002676754
tp4540
Rp4541
(dp4542
g10
g11
sbag4
(g12
g6
F-74.4758548593681
tp4543
Rp4544
(dp4545
g10
g16
sbaa(lp4546
g4
(g5
g6
F40.6693792109682
tp4547
Rp4548
(dp4549
g10
g11
sbag4
(g12
g6
F-74.47585378795964
tp4550
Rp4551
(dp4552
g10
g16
sbaa(lp4553
g4
(g5
g6
F40.66937921096678
tp4554
Rp4555
(dp4556
g10
g11
sbag4
(g12
g6
F-74.47585271654881
tp4557
Rp4558
(dp4559
g10
g16
sbaa(lp4560
g4
(g5
g6
F40.66937839516744
tp4561
Rp4562
(dp4563
g10
g11
sbag4
(g12
g6
F-74.4758516451404
tp4564
Rp4565
(dp4566
g10
g16
sbaa(lp4567
g4
(g5
g6
F40.66937757936953
tp4568
Rp4569
(dp4570
g10
g11
sbag4
(g12
g6
F-74.47585164514281
tp4571
Rp4572
(dp4573
g10
g16
sbaa(lp4574
g4
(g5
g6
F40.669376763570206
tp4575
Rp4576
(dp4577
g10
g11
sbag4
(g12
g6
F-74.47585057373445
tp4578
Rp4579
(dp4580
g10
g16
sbaa(lp4581
g4
(g5
g6
F40.66937594777089
tp4582
Rp4583
(dp4584
g10
g11
sbag4
(g12
g6
F-74.47584950232611
tp4585
Rp4586
(dp4587
g10
g16
sbaa(lp4588
g4
(g5
g6
F40.66937513197157
tp4589
Rp4590
(dp4591
g10
g11
sbag4
(g12
g6
F-74.47584843091782
tp4592
Rp4593
(dp4594
g10
g16
sbaa(lp4595
g4
(g5
g6
F40.66937431617225
tp4596
Rp4597
(dp4598
g10
g11
sbag4
(g12
g6
F-74.47584735950954
tp4599
Rp4600
(dp4601
g10
g16
sbaa(lp4602
g4
(g5
g6
F40.66937350037295
tp4603
Rp4604
(dp4605
g10
g11
sbag4
(g12
g6
F-74.47584628810131
tp4606
Rp4607
(dp4608
g10
g16
sbaa(lp4609
g4
(g5
g6
F40.66937350037149
tp4610
Rp4611
(dp4612
g10
g11
sbag4
(g12
g6
F-74.47584521669059
tp4613
Rp4614
(dp4615
g10
g16
sbaa(lp4616
g4
(g5
g6
F40.66937350037003
tp4617
Rp4618
(dp4619
g10
g11
sbag4
(g12
g6
F-74.47584414527986
tp4620
Rp4621
(dp4622
g10
g16
sbaa(lp4623
g4
(g5
g6
F40.66937350036857
tp4624
Rp4625
(dp4626
g10
g11
sbag4
(g12
g6
F-74.47584307386914
tp4627
Rp4628
(dp4629
g10
g16
sbaa(lp4630
g4
(g5
g6
F40.66937350036709
tp4631
Rp4632
(dp4633
g10
g11
sbag4
(g12
g6
F-74.47584200245844
tp4634
Rp4635
(dp4636
g10
g16
sbaa(lp4637
g4
(g5
g6
F40.66937350036561
tp4638
Rp4639
(dp4640
g10
g11
sbag4
(g12
g6
F-74.47584093104771
tp4641
Rp4642
(dp4643
g10
g16
sbaa(lp4644
g4
(g5
g6
F40.66937431616194
tp4645
Rp4646
(dp4647
g10
g11
sbag4
(g12
g6
F-74.47583985963442
tp4648
Rp4649
(dp4650
g10
g16
sbaa(lp4651
g4
(g5
g6
F40.669374316160436
tp4652
Rp4653
(dp4654
g10
g11
sbag4
(g12
g6
F-74.47583878822368
tp4655
Rp4656
(dp4657
g10
g16
sbaa(lp4658
g4
(g5
g6
F40.6693735003611
tp4659
Rp4660
(dp4661
g10
g11
sbag4
(g12
g6
F-74.47583771681555
tp4662
Rp4663
(dp4664
g10
g16
sbaa(lp4665
g4
(g5
g6
F40.66937350035957
tp4666
Rp4667
(dp4668
g10
g11
sbag4
(g12
g6
F-74.47583664540483
tp4669
Rp4670
(dp4671
g10
g16
sbaa(lp4672
g4
(g5
g6
F40.66937350035804
tp4673
Rp4674
(dp4675
g10
g11
sbag4
(g12
g6
F-74.4758355739941
tp4676
Rp4677
(dp4678
g10
g16
sbaa(lp4679
g4
(g5
g6
F40.6693735003565
tp4680
Rp4681
(dp4682
g10
g11
sbag4
(g12
g6
F-74.4758345025834
tp4683
Rp4684
(dp4685
g10
g16
sbaa(lp4686
g4
(g5
g6
F40.669374316152776
tp4687
Rp4688
(dp4689
g10
g11
sbag4
(g12
g6
F-74.47583343117002
tp4690
Rp4691
(dp4692
g10
g16
sbaa(lp4693
g4
(g5
g6
F40.669373500353394
tp4694
Rp4695
(dp4696
g10
g11
sbag4
(g12
g6
F-74.47583235976195
tp4697
Rp4698
(dp4699
g10
g16
sbaa(lp4700
g4
(g5
g6
F40.66937268455403
tp4701
Rp4702
(dp4703
g10
g11
sbag4
(g12
g6
F-74.4758312883539
tp4704
Rp4705
(dp4706
g10
g16
sbaa(lp4707
g4
(g5
g6
F40.66937186875623
tp4708
Rp4709
(dp4710
g10
g11
sbag4
(g12
g6
F-74.47583128835656
tp4711
Rp4712
(dp4713
g10
g16
sbaa(lp4714
g4
(g5
g6
F40.66937105295844
tp4715
Rp4716
(dp4717
g10
g11
sbag4
(g12
g6
F-74.47583128835923
tp4718
Rp4719
(dp4720
g10
g16
sbaa(lp4721
g4
(g5
g6
F40.669370237160656
tp4722
Rp4723
(dp4724
g10
g11
sbag4
(g12
g6
F-74.47583128836189
tp4725
Rp4726
(dp4727
g10
g16
sbaa(lp4728
g4
(g5
g6
F40.669369421361324
tp4729
Rp4730
(dp4731
g10
g11
sbag4
(g12
g6
F-74.4758302169539
tp4732
Rp4733
(dp4734
g10
g16
sbaa(lp4735
g4
(g5
g6
F40.669368605561985
tp4736
Rp4737
(dp4738
g10
g11
sbag4
(g12
g6
F-74.47582914554592
tp4739
Rp4740
(dp4741
g10
g16
sbaa(lp4742
g4
(g5
g6
F40.66936778976579
tp4743
Rp4744
(dp4745
g10
g11
sbag4
(g12
g6
F-74.47583021695922
tp4746
Rp4747
(dp4748
g10
g16
sbaa(lp4749
g4
(g5
g6
F40.669366973966476
tp4750
Rp4751
(dp4752
g10
g11
sbag4
(g12
g6
F-74.47582914555126
tp4753
Rp4754
(dp4755
g10
g16
sbaa(lp4756
g4
(g5
g6
F40.66936615816718
tp4757
Rp4758
(dp4759
g10
g11
sbag4
(g12
g6
F-74.47582807414331
tp4760
Rp4761
(dp4762
g10
g16
sbaa(lp4763
g4
(g5
g6
F40.66936615816561
tp4764
Rp4765
(dp4766
g10
g11
sbag4
(g12
g6
F-74.47582700273269
tp4767
Rp4768
(dp4769
g10
g16
sbaa(lp4770
g4
(g5
g6
F40.66936534236629
tp4771
Rp4772
(dp4773
g10
g11
sbag4
(g12
g6
F-74.47582593132476
tp4774
Rp4775
(dp4776
g10
g16
sbaa(lp4777
g4
(g5
g6
F40.669364526566994
tp4778
Rp4779
(dp4780
g10
g11
sbag4
(g12
g6
F-74.47582485991687
tp4781
Rp4782
(dp4783
g10
g16
sbaa(lp4784
g4
(g5
g6
F40.66936371076769
tp4785
Rp4786
(dp4787
g10
g11
sbag4
(g12
g6
F-74.47582378850898
tp4788
Rp4789
(dp4790
g10
g16
sbaa(lp4791
g4
(g5
g6
F40.669362894969986
tp4792
Rp4793
(dp4794
g10
g11
sbag4
(g12
g6
F-74.47582378851168
tp4795
Rp4796
(dp4797
g10
g16
sbaa(lp4798
g4
(g5
g6
F40.6693620791707
tp4799
Rp4800
(dp4801
g10
g11
sbag4
(g12
g6
F-74.4758227171038
tp4802
Rp4803
(dp4804
g10
g16
sbaa(lp4805
g4
(g5
g6
F40.669361263371414
tp4806
Rp4807
(dp4808
g10
g11
sbag4
(g12
g6
F-74.47582164569594
tp4809
Rp4810
(dp4811
g10
g16
sbaa(lp4812
g4
(g5
g6
F40.669360447573744
tp4813
Rp4814
(dp4815
g10
g11
sbag4
(g12
g6
F-74.47582164569863
tp4816
Rp4817
(dp4818
g10
g16
sbaa(lp4819
g4
(g5
g6
F40.66935963177609
tp4820
Rp4821
(dp4822
g10
g11
sbag4
(g12
g6
F-74.47582164570132
tp4823
Rp4824
(dp4825
g10
g16
sbaa(lp4826
g4
(g5
g6
F40.669358815992155
tp4827
Rp4828
(dp4829
g10
g11
sbag4
(g12
g6
F-74.47582164563038
tp4830
Rp4831
(dp4832
g10
g16
sbaa(lp4833
g4
(g5
g6
F40.66935800019427
tp4834
Rp4835
(dp4836
g10
g11
sbag4
(g12
g6
F-74.47582164563245
tp4837
Rp4838
(dp4839
g10
g16
sbaa(lp4840
g4
(g5
g6
F40.669357184396375
tp4841
Rp4842
(dp4843
g10
g11
sbag4
(g12
g6
F-74.47582164563453
tp4844
Rp4845
(dp4846
g10
g16
sbaa(lp4847
g4
(g5
g6
F40.6693563685969
tp4848
Rp4849
(dp4850
g10
g11
sbag4
(g12
g6
F-74.47582057422551
tp4851
Rp4852
(dp4853
g10
g16
sbaa(lp4854
g4
(g5
g6
F40.66935555279741
tp4855
Rp4856
(dp4857
g10
g11
sbag4
(g12
g6
F-74.47581950281652
tp4858
Rp4859
(dp4860
g10
g16
sbaa(lp4861
g4
(g5
g6
F40.6693555527958
tp4862
Rp4863
(dp4864
g10
g11
sbag4
(g12
g6
F-74.47581843140544
tp4865
Rp4866
(dp4867
g10
g16
sbaa(lp4868
g4
(g5
g6
F40.6693547369963
tp4869
Rp4870
(dp4871
g10
g11
sbag4
(g12
g6
F-74.47581735999648
tp4872
Rp4873
(dp4874
g10
g16
sbaa(lp4875
g4
(g5
g6
F40.66935392119678
tp4876
Rp4877
(dp4878
g10
g11
sbag4
(g12
g6
F-74.47581628858757
tp4879
Rp4880
(dp4881
g10
g16
sbaa(lp4882
g4
(g5
g6
F40.669353105397256
tp4883
Rp4884
(dp4885
g10
g11
sbag4
(g12
g6
F-74.47581521717866
tp4886
Rp4887
(dp4888
g10
g16
sbaa(lp4889
g4
(g5
g6
F40.669352289597725
tp4890
Rp4891
(dp4892
g10
g11
sbag4
(g12
g6
F-74.4758141457698
tp4893
Rp4894
(dp4895
g10
g16
sbaa(lp4896
g4
(g5
g6
F40.66935147379817
tp4897
Rp4898
(dp4899
g10
g11
sbag4
(g12
g6
F-74.47581307436096
tp4900
Rp4901
(dp4902
g10
g16
sbaa(lp4903
g4
(g5
g6
F40.66935065799862
tp4904
Rp4905
(dp4906
g10
g11
sbag4
(g12
g6
F-74.47581200295214
tp4907
Rp4908
(dp4909
g10
g16
sbaa(lp4910
g4
(g5
g6
F40.669349842199054
tp4911
Rp4912
(dp4913
g10
g11
sbag4
(g12
g6
F-74.47581093154334
tp4914
Rp4915
(dp4916
g10
g16
sbaa(lp4917
g4
(g5
g6
F40.66934902639947
tp4918
Rp4919
(dp4920
g10
g11
sbag4
(g12
g6
F-74.47580986013458
tp4921
Rp4922
(dp4923
g10
g16
sbaa(lp4924
g4
(g5
g6
F40.66934902639778
tp4925
Rp4926
(dp4927
g10
g11
sbag4
(g12
g6
F-74.4758087887236
tp4928
Rp4929
(dp4930
g10
g16
sbaa(lp4931
g4
(g5
g6
F40.66934821059818
tp4932
Rp4933
(dp4934
g10
g11
sbag4
(g12
g6
F-74.47580771731486
tp4935
Rp4936
(dp4937
g10
g16
sbaa(lp4938
g4
(g5
g6
F40.66934821059647
tp4939
Rp4940
(dp4941
g10
g11
sbag4
(g12
g6
F-74.47580664590392
tp4942
Rp4943
(dp4944
g10
g16
sbaa(lp4945
g4
(g5
g6
F40.66934739479685
tp4946
Rp4947
(dp4948
g10
g11
sbag4
(g12
g6
F-74.47580557449523
tp4949
Rp4950
(dp4951
g10
g16
sbaa(lp4952
g4
(g5
g6
F40.66934657899722
tp4953
Rp4954
(dp4955
g10
g11
sbag4
(g12
g6
F-74.47580450308656
tp4956
Rp4957
(dp4958
g10
g16
sbaa(lp4959
g4
(g5
g6
F40.66934576319758
tp4960
Rp4961
(dp4962
g10
g11
sbag4
(g12
g6
F-74.47580343167792
tp4963
Rp4964
(dp4965
g10
g16
sbaa(lp4966
g4
(g5
g6
F40.66934576319583
tp4967
Rp4968
(dp4969
g10
g11
sbag4
(g12
g6
F-74.475802360267
tp4970
Rp4971
(dp4972
g10
g16
sbaa(lp4973
g4
(g5
g6
F40.66934576319407
tp4974
Rp4975
(dp4976
g10
g11
sbag4
(g12
g6
F-74.47580128885608
tp4977
Rp4978
(dp4979
g10
g16
sbaa(lp4980
g4
(g5
g6
F40.66934576319229
tp4981
Rp4982
(dp4983
g10
g11
sbag4
(g12
g6
F-74.47580021744515
tp4984
Rp4985
(dp4986
g10
g16
sbaa(lp4987
g4
(g5
g6
F40.669344947392624
tp4988
Rp4989
(dp4990
g10
g11
sbag4
(g12
g6
F-74.4757991460366
tp4991
Rp4992
(dp4993
g10
g16
sbaa(lp4994
g4
(g5
g6
F40.66934494739082
tp4995
Rp4996
(dp4997
g10
g11
sbag4
(g12
g6
F-74.47579807462569
tp4998
Rp4999
(dp5000
g10
g16
sbaa(lp5001
g4
(g5
g6
F40.669344131591124
tp5002
Rp5003
(dp5004
g10
g11
sbag4
(g12
g6
F-74.47579700321715
tp5005
Rp5006
(dp5007
g10
g16
sbaa(lp5008
g4
(g5
g6
F40.66934331579142
tp5009
Rp5010
(dp5011
g10
g11
sbag4
(g12
g6
F-74.47579593180865
tp5012
Rp5013
(dp5014
g10
g16
sbaa(lp5015
g4
(g5
g6
F40.66934249999169
tp5016
Rp5017
(dp5018
g10
g11
sbag4
(g12
g6
F-74.47579486040016
tp5019
Rp5020
(dp5021
g10
g16
sbaa(lp5022
g4
(g5
g6
F40.66934249998987
tp5023
Rp5024
(dp5025
g10
g11
sbag4
(g12
g6
F-74.4757937889893
tp5026
Rp5027
(dp5028
g10
g16
sbaa(lp5029
g4
(g5
g6
F40.66934168419013
tp5030
Rp5031
(dp5032
g10
g11
sbag4
(g12
g6
F-74.47579271758086
tp5033
Rp5034
(dp5035
g10
g16
sbaa(lp5036
g4
(g5
g6
F40.66934086839038
tp5037
Rp5038
(dp5039
g10
g11
sbag4
(g12
g6
F-74.47579164617244
tp5040
Rp5041
(dp5042
g10
g16
sbaa(lp5043
g4
(g5
g6
F40.66934005259249
tp5044
Rp5045
(dp5046
g10
g11
sbag4
(g12
g6
F-74.47579164617488
tp5047
Rp5048
(dp5049
g10
g16
sbaa(lp5050
g4
(g5
g6
F40.66933923679273
tp5051
Rp5052
(dp5053
g10
g11
sbag4
(g12
g6
F-74.4757905747665
tp5054
Rp5055
(dp5056
g10
g16
sbaa(lp5057
g4
(g5
g6
F40.669339236790854
tp5058
Rp5059
(dp5060
g10
g11
sbag4
(g12
g6
F-74.47578950335568
tp5061
Rp5062
(dp5063
g10
g16
sbaa(lp5064
g4
(g5
g6
F40.66934005258687
tp5065
Rp5066
(dp5067
g10
g11
sbag4
(g12
g6
F-74.47578843194239
tp5068
Rp5069
(dp5070
g10
g16
sbaa(lp5071
g4
(g5
g6
F40.66934005258498
tp5072
Rp5073
(dp5074
g10
g11
sbag4
(g12
g6
F-74.47578736053157
tp5075
Rp5076
(dp5077
g10
g16
sbaa(lp5078
g4
(g5
g6
F40.66934005258307
tp5079
Rp5080
(dp5081
g10
g11
sbag4
(g12
g6
F-74.47578628912073
tp5082
Rp5083
(dp5084
g10
g16
sbaa(lp5085
g4
(g5
g6
F40.669340052581155
tp5086
Rp5087
(dp5088
g10
g11
sbag4
(g12
g6
F-74.4757852177099
tp5089
Rp5090
(dp5091
g10
g16
sbaa(lp5092
g4
(g5
g6
F40.66934005257923
tp5093
Rp5094
(dp5095
g10
g11
sbag4
(g12
g6
F-74.47578414629908
tp5096
Rp5097
(dp5098
g10
g16
sbaa(lp5099
g4
(g5
g6
F40.66934005257728
tp5100
Rp5101
(dp5102
g10
g11
sbag4
(g12
g6
F-74.47578307488824
tp5103
Rp5104
(dp5105
g10
g16
sbaa(lp5106
g4
(g5
g6
F40.66934005257535
tp5107
Rp5108
(dp5109
g10
g11
sbag4
(g12
g6
F-74.47578200347742
tp5110
Rp5111
(dp5112
g10
g16
sbaa(lp5113
g4
(g5
g6
F40.66933923677551
tp5114
Rp5115
(dp5116
g10
g11
sbag4
(g12
g6
F-74.47578093206916
tp5117
Rp5118
(dp5119
g10
g16
sbaa(lp5120
g4
(g5
g6
F40.669338420975656
tp5121
Rp5122
(dp5123
g10
g11
sbag4
(g12
g6
F-74.47577986066092
tp5124
Rp5125
(dp5126
g10
g16
sbaa(lp5127
g4
(g5
g6
F40.66933760517775
tp5128
Rp5129
(dp5130
g10
g11
sbag4
(g12
g6
F-74.47577986066351
tp5131
Rp5132
(dp5133
g10
g16
sbaa(lp5134
g4
(g5
g6
F40.669336789377894
tp5135
Rp5136
(dp5137
g10
g11
sbag4
(g12
g6
F-74.47577878925532
tp5138
Rp5139
(dp5140
g10
g16
sbaa(lp5141
g4
(g5
g6
F40.66933760517379
tp5142
Rp5143
(dp5144
g10
g11
sbag4
(g12
g6
F-74.47577771784194
tp5145
Rp5146
(dp5147
g10
g16
sbaa(lp5148
g4
(g5
g6
F40.6693384209697
tp5149
Rp5150
(dp5151
g10
g11
sbag4
(g12
g6
F-74.47577664642851
tp5152
Rp5153
(dp5154
g10
g16
sbaa(lp5155
g4
(g5
g6
F40.6693384209677
tp5156
Rp5157
(dp5158
g10
g11
sbag4
(g12
g6
F-74.4757755750177
tp5159
Rp5160
(dp5161
g10
g16
sbaa(lp5162
g4
(g5
g6
F40.66933842096569
tp5163
Rp5164
(dp5165
g10
g11
sbag4
(g12
g6
F-74.47577450360691
tp5166
Rp5167
(dp5168
g10
g16
sbaa(lp5169
g4
(g5
g6
F40.66933760516577
tp5170
Rp5171
(dp5172
g10
g11
sbag4
(g12
g6
F-74.47577343219876
tp5173
Rp5174
(dp5175
g10
g16
sbaa(lp5176
g4
(g5
g6
F40.66933760516373
tp5177
Rp5178
(dp5179
g10
g11
sbag4
(g12
g6
F-74.47577236078799
tp5180
Rp5181
(dp5182
g10
g16
sbaa(lp5183
g4
(g5
g6
F40.669337605161694
tp5184
Rp5185
(dp5186
g10
g11
sbag4
(g12
g6
F-74.47577128937719
tp5187
Rp5188
(dp5189
g10
g16
sbaa(lp5190
g4
(g5
g6
F40.66933760515964
tp5191
Rp5192
(dp5193
g10
g11
sbag4
(g12
g6
F-74.4757702179664
tp5194
Rp5195
(dp5196
g10
g16
sbaa(lp5197
g4
(g5
g6
F40.66933678935968
tp5198
Rp5199
(dp5200
g10
g11
sbag4
(g12
g6
F-74.47576914655832
tp5201
Rp5202
(dp5203
g10
g16
sbaa(lp5204
g4
(g5
g6
F40.66933597355971
tp5205
Rp5206
(dp5207
g10
g11
sbag4
(g12
g6
F-74.47576807515027
tp5208
Rp5209
(dp5210
g10
g16
sbaa(lp5211
g4
(g5
g6
F40.66933515775973
tp5212
Rp5213
(dp5214
g10
g11
sbag4
(g12
g6
F-74.47576700374225
tp5215
Rp5216
(dp5217
g10
g16
sbaa(lp5218
g4
(g5
g6
F40.669335157757644
tp5219
Rp5220
(dp5221
g10
g11
sbag4
(g12
g6
F-74.4757659323315
tp5222
Rp5223
(dp5224
g10
g16
sbaa(lp5225
g4
(g5
g6
F40.66933515775555
tp5226
Rp5227
(dp5228
g10
g11
sbag4
(g12
g6
F-74.47576486092075
tp5229
Rp5230
(dp5231
g10
g16
sbaa(lp5232
g4
(g5
g6
F40.66933597355132
tp5233
Rp5234
(dp5235
g10
g11
sbag4
(g12
g6
F-74.47576378950721
tp5236
Rp5237
(dp5238
g10
g16
sbaa(lp5239
g4
(g5
g6
F40.669335157751306
tp5240
Rp5241
(dp5242
g10
g11
sbag4
(g12
g6
F-74.47576271809925
tp5243
Rp5244
(dp5245
g10
g16
sbaa(lp5246
g4
(g5
g6
F40.669334341953416
tp5247
Rp5248
(dp5249
g10
g11
sbag4
(g12
g6
F-74.47576271810205
tp5250
Rp5251
(dp5252
g10
g16
sbaa(lp5253
g4
(g5
g6
F40.66933352615551
tp5254
Rp5255
(dp5256
g10
g11
sbag4
(g12
g6
F-74.47576271810483
tp5257
Rp5258
(dp5259
g10
g16
sbaa(lp5260
g4
(g5
g6
F40.66933271035762
tp5261
Rp5262
(dp5263
g10
g11
sbag4
(g12
g6
F-74.47576271810763
tp5264
Rp5265
(dp5266
g10
g16
sbaa(lp5267
g4
(g5
g6
F40.669331894559726
tp5268
Rp5269
(dp5270
g10
g11
sbag4
(g12
g6
F-74.47576271811042
tp5271
Rp5272
(dp5273
g10
g16
sbaa(lp5274
g4
(g5
g6
F40.669331078761836
tp5275
Rp5276
(dp5277
g10
g11
sbag4
(g12
g6
F-74.47576271811322
tp5278
Rp5279
(dp5280
g10
g16
sbaa(lp5281
g4
(g5
g6
F40.66933026296394
tp5282
Rp5283
(dp5284
g10
g11
sbag4
(g12
g6
F-74.47576271811602
tp5285
Rp5286
(dp5287
g10
g16
sbaa(lp5288
g4
(g5
g6
F40.66932944716392
tp5289
Rp5290
(dp5291
g10
g11
sbag4
(g12
g6
F-74.47576164670815
tp5292
Rp5293
(dp5294
g10
g16
sbaa(lp5295
g4
(g5
g6
F40.66932944716177
tp5296
Rp5297
(dp5298
g10
g11
sbag4
(g12
g6
F-74.47576057529749
tp5299
Rp5300
(dp5301
g10
g16
sbaa(lp5302
g4
(g5
g6
F40.66932944715962
tp5303
Rp5304
(dp5305
g10
g11
sbag4
(g12
g6
F-74.47575950388682
tp5306
Rp5307
(dp5308
g10
g16
sbaa(lp5309
g4
(g5
g6
F40.66932863135956
tp5310
Rp5311
(dp5312
g10
g11
sbag4
(g12
g6
F-74.47575843247901
tp5313
Rp5314
(dp5315
g10
g16
sbaa(lp5316
g4
(g5
g6
F40.669327815561665
tp5317
Rp5318
(dp5319
g10
g11
sbag4
(g12
g6
F-74.47575843248185
tp5320
Rp5321
(dp5322
g10
g16
sbaa(lp5323
g4
(g5
g6
F40.6693269997616
tp5324
Rp5325
(dp5326
g10
g11
sbag4
(g12
g6
F-74.47575736107409
tp5327
Rp5328
(dp5329
g10
g16
sbaa(lp5330
g4
(g5
g6
F40.66932699975941
tp5331
Rp5332
(dp5333
g10
g11
sbag4
(g12
g6
F-74.47575628966347
tp5334
Rp5335
(dp5336
g10
g16
sbaa(lp5337
g4
(g5
g6
F40.669326999757224
tp5338
Rp5339
(dp5340
g10
g11
sbag4
(g12
g6
F-74.47575521825284
tp5341
Rp5342
(dp5343
g10
g16
sbaa(lp5344
g4
(g5
g6
F40.669326183957125
tp5345
Rp5346
(dp5347
g10
g11
sbag4
(g12
g6
F-74.47575414684512
tp5348
Rp5349
(dp5350
g10
g16
sbaa(lp5351
g4
(g5
g6
F40.66932536815702
tp5352
Rp5353
(dp5354
g10
g11
sbag4
(g12
g6
F-74.47575307543742
tp5355
Rp5356
(dp5357
g10
g16
sbaa(lp5358
g4
(g5
g6
F40.669324552356905
tp5359
Rp5360
(dp5361
g10
g11
sbag4
(g12
g6
F-74.47575200402976
tp5362
Rp5363
(dp5364
g10
g16
sbaa(lp5365
g4
(g5
g6
F40.669323736556784
tp5366
Rp5367
(dp5368
g10
g11
sbag4
(g12
g6
F-74.4757509326221
tp5369
Rp5370
(dp5371
g10
g16
sbaa(lp5372
g4
(g5
g6
F40.66932292075664
tp5373
Rp5374
(dp5375
g10
g11
sbag4
(g12
g6
F-74.4757498612145
tp5376
Rp5377
(dp5378
g10
g16
sbaa(lp5379
g4
(g5
g6
F40.669322104956485
tp5380
Rp5381
(dp5382
g10
g11
sbag4
(g12
g6
F-74.4757487898069
tp5383
Rp5384
(dp5385
g10
g16
sbaa(lp5386
g4
(g5
g6
F40.669322104954226
tp5387
Rp5388
(dp5389
g10
g11
sbag4
(g12
g6
F-74.47574771839636
tp5390
Rp5391
(dp5392
g10
g16
sbaa(lp5393
g4
(g5
g6
F40.66932210495195
tp5394
Rp5395
(dp5396
g10
g11
sbag4
(g12
g6
F-74.47574664698581
tp5397
Rp5398
(dp5399
g10
g16
sbaa(lp5400
g4
(g5
g6
F40.66932210494967
tp5401
Rp5402
(dp5403
g10
g11
sbag4
(g12
g6
F-74.47574557557527
tp5404
Rp5405
(dp5406
g10
g16
sbaa(lp5407
g4
(g5
g6
F40.669322104947376
tp5408
Rp5409
(dp5410
g10
g11
sbag4
(g12
g6
F-74.47574450416474
tp5411
Rp5412
(dp5413
g10
g16
sbaa(lp5414
g4
(g5
g6
F40.66932210494508
tp5415
Rp5416
(dp5417
g10
g11
sbag4
(g12
g6
F-74.47574343275419
tp5418
Rp5419
(dp5420
g10
g16
sbaa(lp5421
g4
(g5
g6
F40.66932210494277
tp5422
Rp5423
(dp5424
g10
g11
sbag4
(g12
g6
F-74.47574236134365
tp5425
Rp5426
(dp5427
g10
g16
sbaa(lp5428
g4
(g5
g6
F40.66932128914255
tp5429
Rp5430
(dp5431
g10
g11
sbag4
(g12
g6
F-74.47574128993617
tp5432
Rp5433
(dp5434
g10
g16
sbaa(lp5435
g4
(g5
g6
F40.669320473342324
tp5436
Rp5437
(dp5438
g10
g11
sbag4
(g12
g6
F-74.4757402185287
tp5439
Rp5440
(dp5441
g10
g16
sbaa(lp5442
g4
(g5
g6
F40.66931965754209
tp5443
Rp5444
(dp5445
g10
g11
sbag4
(g12
g6
F-74.47573914712126
tp5446
Rp5447
(dp5448
g10
g16
sbaa(lp5449
g4
(g5
g6
F40.66931884174184
tp5450
Rp5451
(dp5452
g10
g11
sbag4
(g12
g6
F-74.47573807571386
tp5453
Rp5454
(dp5455
g10
g16
sbaa(lp5456
g4
(g5
g6
F40.669318025941585
tp5457
Rp5458
(dp5459
g10
g11
sbag4
(g12
g6
F-74.47573700430648
tp5460
Rp5461
(dp5462
g10
g16
sbaa(lp5463
g4
(g5
g6
F40.66931721014132
tp5464
Rp5465
(dp5466
g10
g11
sbag4
(g12
g6
F-74.47573593289911
tp5467
Rp5468
(dp5469
g10
g16
sbaa(lp5470
g4
(g5
g6
F40.669316394341045
tp5471
Rp5472
(dp5473
g10
g11
sbag4
(g12
g6
F-74.47573486149179
tp5474
Rp5475
(dp5476
g10
g16
sbaa(lp5477
g4
(g5
g6
F40.66931639433865
tp5478
Rp5479
(dp5480
g10
g11
sbag4
(g12
g6
F-74.47573379008134
tp5481
Rp5482
(dp5483
g10
g16
sbaa(lp5484
g4
(g5
g6
F40.66931639433624
tp5485
Rp5486
(dp5487
g10
g11
sbag4
(g12
g6
F-74.47573271867088
tp5488
Rp5489
(dp5490
g10
g16
sbaa(lp5491
g4
(g5
g6
F40.66931557853594
tp5492
Rp5493
(dp5494
g10
g11
sbag4
(g12
g6
F-74.47573164726361
tp5495
Rp5496
(dp5497
g10
g16
sbaa(lp5498
g4
(g5
g6
F40.669314762735624
tp5499
Rp5500
(dp5501
g10
g11
sbag4
(g12
g6
F-74.47573057585636
tp5502
Rp5503
(dp5504
g10
g16
sbaa(lp5505
g4
(g5
g6
F40.6693139469353
tp5506
Rp5507
(dp5508
g10
g11
sbag4
(g12
g6
F-74.47572950444913
tp5509
Rp5510
(dp5511
g10
g16
sbaa(lp5512
g4
(g5
g6
F40.669313131134956
tp5513
Rp5514
(dp5515
g10
g11
sbag4
(g12
g6
F-74.47572843304194
tp5516
Rp5517
(dp5518
g10
g16
sbaa(lp5519
g4
(g5
g6
F40.66931231533461
tp5520
Rp5521
(dp5522
g10
g11
sbag4
(g12
g6
F-74.47572736163475
tp5523
Rp5524
(dp5525
g10
g16
sbaa(lp5526
g4
(g5
g6
F40.66931231533216
tp5527
Rp5528
(dp5529
g10
g11
sbag4
(g12
g6
F-74.47572629022437
tp5530
Rp5531
(dp5532
g10
g16
sbaa(lp5533
g4
(g5
g6
F40.66931149953178
tp5534
Rp5535
(dp5536
g10
g11
sbag4
(g12
g6
F-74.47572521881725
tp5537
Rp5538
(dp5539
g10
g16
sbaa(lp5540
g4
(g5
g6
F40.66931068373141
tp5541
Rp5542
(dp5543
g10
g11
sbag4
(g12
g6
F-74.47572414741013
tp5544
Rp5545
(dp5546
g10
g16
sbaa(lp5547
g4
(g5
g6
F40.66930986793351
tp5548
Rp5549
(dp5550
g10
g11
sbag4
(g12
g6
F-74.4757241474134
tp5551
Rp5552
(dp5553
g10
g16
sbaa(lp5554
g4
(g5
g6
F40.669309052133116
tp5555
Rp5556
(dp5557
g10
g11
sbag4
(g12
g6
F-74.47572307600633
tp5558
Rp5559
(dp5560
g10
g16
sbaa(lp5561
g4
(g5
g6
F40.66930823633272
tp5562
Rp5563
(dp5564
g10
g11
sbag4
(g12
g6
F-74.47572200459928
tp5565
Rp5566
(dp5567
g10
g16
sbaa(lp5568
g4
(g5
g6
F40.669307420532306
tp5569
Rp5570
(dp5571
g10
g11
sbag4
(g12
g6
F-74.47572093319226
tp5572
Rp5573
(dp5574
g10
g16
sbaa(lp5575
g4
(g5
g6
F40.6693074205298
tp5576
Rp5577
(dp5578
g10
g11
sbag4
(g12
g6
F-74.47571986178195
tp5579
Rp5580
(dp5581
g10
g16
sbaa(lp5582
g4
(g5
g6
F40.669306604729364
tp5583
Rp5584
(dp5585
g10
g11
sbag4
(g12
g6
F-74.47571879037498
tp5586
Rp5587
(dp5588
g10
g16
sbaa(lp5589
g4
(g5
g6
F40.66930578893147
tp5590
Rp5591
(dp5592
g10
g11
sbag4
(g12
g6
F-74.47571879037831
tp5593
Rp5594
(dp5595
g10
g16
sbaa(lp5596
g4
(g5
g6
F40.66930497313609
tp5597
Rp5598
(dp5599
g10
g11
sbag4
(g12
g6
F-74.47571986179192
tp5600
Rp5601
(dp5602
g10
g16
sbaa(lp5603
g4
(g5
g6
F40.66930415733567
tp5604
Rp5605
(dp5606
g10
g11
sbag4
(g12
g6
F-74.47571879038497
tp5607
Rp5608
(dp5609
g10
g16
sbaa(lp5610
g4
(g5
g6
F40.669303341535226
tp5611
Rp5612
(dp5613
g10
g11
sbag4
(g12
g6
F-74.47571771897806
tp5614
Rp5615
(dp5616
g10
g16
sbaa(lp5617
g4
(g5
g6
F40.669302525734786
tp5618
Rp5619
(dp5620
g10
g11
sbag4
(g12
g6
F-74.47571664757118
tp5621
Rp5622
(dp5623
g10
g16
sbaa(lp5624
g4
(g5
g6
F40.66930252573222
tp5625
Rp5626
(dp5627
g10
g11
sbag4
(g12
g6
F-74.47571557616094
tp5628
Rp5629
(dp5630
g10
g16
sbaa(lp5631
g4
(g5
g6
F40.669302525729655
tp5632
Rp5633
(dp5634
g10
g11
sbag4
(g12
g6
F-74.47571450475071
tp5635
Rp5636
(dp5637
g10
g16
sbaa(lp5638
g4
(g5
g6
F40.66930170992917
tp5639
Rp5640
(dp5641
g10
g11
sbag4
(g12
g6
F-74.47571343334388
tp5642
Rp5643
(dp5644
g10
g16
sbaa(lp5645
g4
(g5
g6
F40.66930089412868
tp5646
Rp5647
(dp5648
g10
g11
sbag4
(g12
g6
F-74.47571236193707
tp5649
Rp5650
(dp5651
g10
g16
sbaa(lp5652
g4
(g5
g6
F40.6693000783282
tp5653
Rp5654
(dp5655
g10
g11
sbag4
(g12
g6
F-74.47571129053028
tp5656
Rp5657
(dp5658
g10
g16
sbaa(lp5659
g4
(g5
g6
F40.66929926253029
tp5660
Rp5661
(dp5662
g10
g11
sbag4
(g12
g6
F-74.47571129053371
tp5663
Rp5664
(dp5665
g10
g16
sbaa(lp5666
g4
(g5
g6
F40.669298446732384
tp5667
Rp5668
(dp5669
g10
g11
sbag4
(g12
g6
F-74.47571129053713
tp5670
Rp5671
(dp5672
g10
g16
sbaa(lp5673
g4
(g5
g6
F40.66929763093449
tp5674
Rp5675
(dp5676
g10
g11
sbag4
(g12
g6
F-74.47571129054056
tp5677
Rp5678
(dp5679
g10
g16
sbaa(lp5680
g4
(g5
g6
F40.6692968151366
tp5681
Rp5682
(dp5683
g10
g11
sbag4
(g12
g6
F-74.47571129054397
tp5684
Rp5685
(dp5686
g10
g16
sbaa(lp5687
g4
(g5
g6
F40.66929599933869
tp5688
Rp5689
(dp5690
g10
g11
sbag4
(g12
g6
F-74.4757112905474
tp5691
Rp5692
(dp5693
g10
g16
sbaa(lp5694
g4
(g5
g6
F40.66929518354079
tp5695
Rp5696
(dp5697
g10
g11
sbag4
(g12
g6
F-74.47571129055082
tp5698
Rp5699
(dp5700
g10
g16
sbaa(lp5701
g4
(g5
g6
F40.669294367742886
tp5702
Rp5703
(dp5704
g10
g11
sbag4
(g12
g6
F-74.47571129055424
tp5705
Rp5706
(dp5707
g10
g16
sbaa(lp5708
g4
(g5
g6
F40.6692935519476
tp5709
Rp5710
(dp5711
g10
g11
sbag4
(g12
g6
F-74.47571236196775
tp5712
Rp5713
(dp5714
g10
g16
sbaa(lp5715
g4
(g5
g6
F40.6692927361497
tp5716
Rp5717
(dp5718
g10
g11
sbag4
(g12
g6
F-74.47571236197116
tp5719
Rp5720
(dp5721
g10
g16
sbaa(lp5722
g4
(g5
g6
F40.669291920351796
tp5723
Rp5724
(dp5725
g10
g11
sbag4
(g12
g6
F-74.47571236197456
tp5726
Rp5727
(dp5728
g10
g16
sbaa(lp5729
g4
(g5
g6
F40.66929110455389
tp5730
Rp5731
(dp5732
g10
g11
sbag4
(g12
g6
F-74.47571236197797
tp5733
Rp5734
(dp5735
g10
g16
sbaa(lp5736
g4
(g5
g6
F40.669290288755995
tp5737
Rp5738
(dp5739
g10
g11
sbag4
(g12
g6
F-74.47571236198138
tp5740
Rp5741
(dp5742
g10
g16
sbaa(lp5743
g4
(g5
g6
F40.6692894729581
tp5744
Rp5745
(dp5746
g10
g11
sbag4
(g12
g6
F-74.47571236198479
tp5747
Rp5748
(dp5749
g10
g16
sbaa(lp5750
g4
(g5
g6
F40.669288657160195
tp5751
Rp5752
(dp5753
g10
g11
sbag4
(g12
g6
F-74.4757123619882
tp5754
Rp5755
(dp5756
g10
g16
sbaa(lp5757
g4
(g5
g6
F40.669287841362284
tp5758
Rp5759
(dp5760
g10
g11
sbag4
(g12
g6
F-74.47571236199161
tp5761
Rp5762
(dp5763
g10
g16
sbaa(lp5764
g4
(g5
g6
F40.66928702556179
tp5765
Rp5766
(dp5767
g10
g11
sbag4
(g12
g6
F-74.47571129058502
tp5768
Rp5769
(dp5770
g10
g16
sbaa(lp5771
g4
(g5
g6
F40.669286209763904
tp5772
Rp5773
(dp5774
g10
g11
sbag4
(g12
g6
F-74.47571129058845
tp5775
Rp5776
(dp5777
g10
g16
sbaa(lp5778
g4
(g5
g6
F40.669285393963385
tp5779
Rp5780
(dp5781
g10
g11
sbag4
(g12
g6
F-74.47571021918192
tp5782
Rp5783
(dp5784
g10
g16
sbaa(lp5785
g4
(g5
g6
F40.669284578162866
tp5786
Rp5787
(dp5788
g10
g11
sbag4
(g12
g6
F-74.47570914777542
tp5789
Rp5790
(dp5791
g10
g16
sbaa(lp5792
g4
(g5
g6
F40.66928457816022
tp5793
Rp5794
(dp5795
g10
g11
sbag4
(g12
g6
F-74.47570807636546
tp5796
Rp5797
(dp5798
g10
g16
sbaa(lp5799
g4
(g5
g6
F40.66928457815759
tp5800
Rp5801
(dp5802
g10
g11
sbag4
(g12
g6
F-74.47570700495552
tp5803
Rp5804
(dp5805
g10
g16
sbaa(lp5806
g4
(g5
g6
F40.669284578154944
tp5807
Rp5808
(dp5809
g10
g11
sbag4
(g12
g6
F-74.47570593354558
tp5810
Rp5811
(dp5812
g10
g16
sbaa(lp5813
g4
(g5
g6
F40.66928457815228
tp5814
Rp5815
(dp5816
g10
g11
sbag4
(g12
g6
F-74.47570486213564
tp5817
Rp5818
(dp5819
g10
g16
sbaa(lp5820
g4
(g5
g6
F40.66928457814961
tp5821
Rp5822
(dp5823
g10
g11
sbag4
(g12
g6
F-74.4757037907257
tp5824
Rp5825
(dp5826
g10
g16
sbaa(lp5827
g4
(g5
g6
F40.66928457814693
tp5828
Rp5829
(dp5830
g10
g11
sbag4
(g12
g6
F-74.47570271931576
tp5831
Rp5832
(dp5833
g10
g16
sbaa(lp5834
g4
(g5
g6
F40.66928376234633
tp5835
Rp5836
(dp5837
g10
g11
sbag4
(g12
g6
F-74.47570164790936
tp5838
Rp5839
(dp5840
g10
g16
sbaa(lp5841
g4
(g5
g6
F40.66928294654844
tp5842
Rp5843
(dp5844
g10
g11
sbag4
(g12
g6
F-74.4757016479129
tp5845
Rp5846
(dp5847
g10
g16
sbaa(lp5848
g4
(g5
g6
F40.66928213074785
tp5849
Rp5850
(dp5851
g10
g11
sbag4
(g12
g6
F-74.47570057650654
tp5852
Rp5853
(dp5854
g10
g16
sbaa(lp5855
g4
(g5
g6
F40.66928131494723
tp5856
Rp5857
(dp5858
g10
g11
sbag4
(g12
g6
F-74.4756995051002
tp5859
Rp5860
(dp5861
g10
g16
sbaa(lp5862
g4
(g5
g6
F40.669280499146616
tp5863
Rp5864
(dp5865
g10
g11
sbag4
(g12
g6
F-74.47569843369388
tp5866
Rp5867
(dp5868
g10
g16
sbaa(lp5869
g4
(g5
g6
F40.66927968334598
tp5870
Rp5871
(dp5872
g10
g11
sbag4
(g12
g6
F-74.4756973622876
tp5873
Rp5874
(dp5875
g10
g16
sbaa(lp5876
g4
(g5
g6
F40.66927886754534
tp5877
Rp5878
(dp5879
g10
g11
sbag4
(g12
g6
F-74.47569629088134
tp5880
Rp5881
(dp5882
g10
g16
sbaa(lp5883
g4
(g5
g6
F40.669278867542594
tp5884
Rp5885
(dp5886
g10
g11
sbag4
(g12
g6
F-74.47569521947149
tp5887
Rp5888
(dp5889
g10
g16
sbaa(lp5890
g4
(g5
g6
F40.66927886753983
tp5891
Rp5892
(dp5893
g10
g11
sbag4
(g12
g6
F-74.47569414806163
tp5894
Rp5895
(dp5896
g10
g16
sbaa(lp5897
g4
(g5
g6
F40.66927886753706
tp5898
Rp5899
(dp5900
g10
g11
sbag4
(g12
g6
F-74.4756930766518
tp5901
Rp5902
(dp5903
g10
g16
sbaa(lp5904
g4
(g5
g6
F40.66927886753428
tp5905
Rp5906
(dp5907
g10
g11
sbag4
(g12
g6
F-74.47569200524194
tp5908
Rp5909
(dp5910
g10
g16
sbaa(lp5911
g4
(g5
g6
F40.66927886753149
tp5912
Rp5913
(dp5914
g10
g11
sbag4
(g12
g6
F-74.47569093383208
tp5915
Rp5916
(dp5917
g10
g16
sbaa(lp5918
g4
(g5
g6
F40.6692796833266
tp5919
Rp5920
(dp5921
g10
g11
sbag4
(g12
g6
F-74.47568986241856
tp5922
Rp5923
(dp5924
g10
g16
sbaa(lp5925
g4
(g5
g6
F40.66928049912169
tp5926
Rp5927
(dp5928
g10
g11
sbag4
(g12
g6
F-74.475688791005
tp5929
Rp5930
(dp5931
g10
g16
sbaa(lp5932
g4
(g5
g6
F40.66928049911887
tp5933
Rp5934
(dp5935
g10
g11
sbag4
(g12
g6
F-74.47568771959511
tp5936
Rp5937
(dp5938
g10
g16
sbaa(lp5939
g4
(g5
g6
F40.669279683318145
tp5940
Rp5941
(dp5942
g10
g11
sbag4
(g12
g6
F-74.47568664818897
tp5943
Rp5944
(dp5945
g10
g16
sbaa(lp5946
g4
(g5
g6
F40.6692788675174
tp5947
Rp5948
(dp5949
g10
g11
sbag4
(g12
g6
F-74.47568557678284
tp5950
Rp5951
(dp5952
g10
g16
sbaa(lp5953
g4
(g5
g6
F40.66927805171665
tp5954
Rp5955
(dp5956
g10
g11
sbag4
(g12
g6
F-74.47568450537673
tp5957
Rp5958
(dp5959
g10
g16
sbaa(lp5960
g4
(g5
g6
F40.6692772359159
tp5961
Rp5962
(dp5963
g10
g11
sbag4
(g12
g6
F-74.47568343397066
tp5964
Rp5965
(dp5966
g10
g16
sbaa(lp5967
g4
(g5
g6
F40.669276420115125
tp5968
Rp5969
(dp5970
g10
g11
sbag4
(g12
g6
F-74.47568236256461
tp5971
Rp5972
(dp5973
g10
g16
sbaa(lp5974
g4
(g5
g6
F40.66927560431434
tp5975
Rp5976
(dp5977
g10
g11
sbag4
(g12
g6
F-74.47568129115858
tp5978
Rp5979
(dp5980
g10
g16
sbaa(lp5981
g4
(g5
g6
F40.66927560431146
tp5982
Rp5983
(dp5984
g10
g11
sbag4
(g12
g6
F-74.47568021974878
tp5985
Rp5986
(dp5987
g10
g16
sbaa(lp5988
g4
(g5
g6
F40.66927560430856
tp5989
Rp5990
(dp5991
g10
g11
sbag4
(g12
g6
F-74.47567914833898
tp5992
Rp5993
(dp5994
g10
g16
sbaa(lp5995
g4
(g5
g6
F40.66927478850774
tp5996
Rp5997
(dp5998
g10
g11
sbag4
(g12
g6
F-74.47567807693302
tp5999
Rp6000
(dp6001
g10
g16
sbaa(lp6002
g4
(g5
g6
F40.669273972706925
tp6003
Rp6004
(dp6005
g10
g11
sbag4
(g12
g6
F-74.47567700552707
tp6006
Rp6007
(dp6008
g10
g16
sbaa(lp6009
g4
(g5
g6
F40.669273972704
tp6010
Rp6011
(dp6012
g10
g11
sbag4
(g12
g6
F-74.47567593411729
tp6013
Rp6014
(dp6015
g10
g16
sbaa(lp6016
g4
(g5
g6
F40.669273972701056
tp6017
Rp6018
(dp6019
g10
g11
sbag4
(g12
g6
F-74.47567486270752
tp6020
Rp6021
(dp6022
g10
g16
sbaa(lp6023
g4
(g5
g6
F40.66927397269811
tp6024
Rp6025
(dp6026
g10
g11
sbag4
(g12
g6
F-74.47567379129775
tp6027
Rp6028
(dp6029
g10
g16
sbaa(lp6030
g4
(g5
g6
F40.66927397269515
tp6031
Rp6032
(dp6033
g10
g11
sbag4
(g12
g6
F-74.47567271988798
tp6034
Rp6035
(dp6036
g10
g16
sbaa(lp6037
g4
(g5
g6
F40.66927397269218
tp6038
Rp6039
(dp6040
g10
g11
sbag4
(g12
g6
F-74.47567164847821
tp6041
Rp6042
(dp6043
g10
g16
sbaa(lp6044
g4
(g5
g6
F40.66927315689131
tp6045
Rp6046
(dp6047
g10
g11
sbag4
(g12
g6
F-74.47567057707235
tp6048
Rp6049
(dp6050
g10
g16
sbaa(lp6051
g4
(g5
g6
F40.66927315688832
tp6052
Rp6053
(dp6054
g10
g11
sbag4
(g12
g6
F-74.4756695056626
tp6055
Rp6056
(dp6057
g10
g16
sbaa(lp6058
g4
(g5
g6
F40.669273156885325
tp6059
Rp6060
(dp6061
g10
g11
sbag4
(g12
g6
F-74.47566843425284
tp6062
Rp6063
(dp6064
g10
g16
sbaa(lp6065
g4
(g5
g6
F40.66927315688231
tp6066
Rp6067
(dp6068
g10
g11
sbag4
(g12
g6
F-74.47566736284308
tp6069
Rp6070
(dp6071
g10
g16
sbaa(lp6072
g4
(g5
g6
F40.6692731568793
tp6073
Rp6074
(dp6075
g10
g11
sbag4
(g12
g6
F-74.47566629143331
tp6076
Rp6077
(dp6078
g10
g16
sbaa(lp6079
g4
(g5
g6
F40.66927315687627
tp6080
Rp6081
(dp6082
g10
g11
sbag4
(g12
g6
F-74.47566522002356
tp6083
Rp6084
(dp6085
g10
g16
sbaa(lp6086
g4
(g5
g6
F40.66927315687323
tp6087
Rp6088
(dp6089
g10
g11
sbag4
(g12
g6
F-74.4756641486138
tp6090
Rp6091
(dp6092
g10
g16
sbaa(lp6093
g4
(g5
g6
F40.66927315687019
tp6094
Rp6095
(dp6096
g10
g11
sbag4
(g12
g6
F-74.47566307720405
tp6097
Rp6098
(dp6099
g10
g16
sbaa(lp6100
g4
(g5
g6
F40.66927315686713
tp6101
Rp6102
(dp6103
g10
g11
sbag4
(g12
g6
F-74.47566200579428
tp6104
Rp6105
(dp6106
g10
g16
sbaa(lp6107
g4
(g5
g6
F40.669273156864065
tp6108
Rp6109
(dp6110
g10
g11
sbag4
(g12
g6
F-74.47566093438452
tp6111
Rp6112
(dp6113
g10
g16
sbaa(lp6114
g4
(g5
g6
F40.66927315686098
tp6115
Rp6116
(dp6117
g10
g11
sbag4
(g12
g6
F-74.47565986297477
tp6118
Rp6119
(dp6120
g10
g16
sbaa(lp6121
g4
(g5
g6
F40.6692731568579
tp6122
Rp6123
(dp6124
g10
g11
sbag4
(g12
g6
F-74.47565879156501
tp6125
Rp6126
(dp6127
g10
g16
sbaa(lp6128
g4
(g5
g6
F40.6692731568548
tp6129
Rp6130
(dp6131
g10
g11
sbag4
(g12
g6
F-74.47565772015525
tp6132
Rp6133
(dp6134
g10
g16
sbaa(lp6135
g4
(g5
g6
F40.66927315685169
tp6136
Rp6137
(dp6138
g10
g11
sbag4
(g12
g6
F-74.47565664874548
tp6139
Rp6140
(dp6141
g10
g16
sbaa(lp6142
g4
(g5
g6
F40.66927397264648
tp6143
Rp6144
(dp6145
g10
g11
sbag4
(g12
g6
F-74.47565557733164
tp6146
Rp6147
(dp6148
g10
g16
sbaa(lp6149
g4
(g5
g6
F40.66927397264335
tp6150
Rp6151
(dp6152
g10
g11
sbag4
(g12
g6
F-74.47565450592185
tp6153
Rp6154
(dp6155
g10
g16
sbaa(lp6156
g4
(g5
g6
F40.66927397264022
tp6157
Rp6158
(dp6159
g10
g11
sbag4
(g12
g6
F-74.47565343451208
tp6160
Rp6161
(dp6162
g10
g16
sbaa(lp6163
g4
(g5
g6
F40.669273972637065
tp6164
Rp6165
(dp6166
g10
g11
sbag4
(g12
g6
F-74.47565236310231
tp6167
Rp6168
(dp6169
g10
g16
sbaa(lp6170
g4
(g5
g6
F40.66927315683601
tp6171
Rp6172
(dp6173
g10
g11
sbag4
(g12
g6
F-74.47565129169669
tp6174
Rp6175
(dp6176
g10
g16
sbaa(lp6177
g4
(g5
g6
F40.66927234103494
tp6178
Rp6179
(dp6180
g10
g11
sbag4
(g12
g6
F-74.4756502202911
tp6181
Rp6182
(dp6183
g10
g16
sbaa(lp6184
g4
(g5
g6
F40.66927152523387
tp6185
Rp6186
(dp6187
g10
g11
sbag4
(g12
g6
F-74.47564914888554
tp6188
Rp6189
(dp6190
g10
g16
sbaa(lp6191
g4
(g5
g6
F40.669270709432766
tp6192
Rp6193
(dp6194
g10
g11
sbag4
(g12
g6
F-74.47564807747999
tp6195
Rp6196
(dp6197
g10
g16
sbaa(lp6198
g4
(g5
g6
F40.669270709429576
tp6199
Rp6200
(dp6201
g10
g11
sbag4
(g12
g6
F-74.47564700607028
tp6202
Rp6203
(dp6204
g10
g16
sbaa(lp6205
g4
(g5
g6
F40.66927070942638
tp6206
Rp6207
(dp6208
g10
g11
sbag4
(g12
g6
F-74.47564593466055
tp6209
Rp6210
(dp6211
g10
g16
sbaa(lp6212
g4
(g5
g6
F40.669271525221056
tp6213
Rp6214
(dp6215
g10
g11
sbag4
(g12
g6
F-74.4756448632466
tp6216
Rp6217
(dp6218
g10
g16
sbaa(lp6219
g4
(g5
g6
F40.66927234101574
tp6220
Rp6221
(dp6222
g10
g11
sbag4
(g12
g6
F-74.47564379183262
tp6223
Rp6224
(dp6225
g10
g16
sbaa(lp6226
g4
(g5
g6
F40.669271525214604
tp6227
Rp6228
(dp6229
g10
g11
sbag4
(g12
g6
F-74.47564272042713
tp6230
Rp6231
(dp6232
g10
g16
sbaa(lp6233
g4
(g5
g6
F40.66927070941345
tp6234
Rp6235
(dp6236
g10
g11
sbag4
(g12
g6
F-74.47564164902167
tp6237
Rp6238
(dp6239
g10
g16
sbaa(lp6240
g4
(g5
g6
F40.66927070941018
tp6241
Rp6242
(dp6243
g10
g11
sbag4
(g12
g6
F-74.47564057761195
tp6244
Rp6245
(dp6246
g10
g16
sbaa(lp6247
g4
(g5
g6
F40.66926989360902
tp6248
Rp6249
(dp6250
g10
g11
sbag4
(g12
g6
F-74.47563950620653
tp6251
Rp6252
(dp6253
g10
g16
sbaa(lp6254
g4
(g5
g6
F40.66926907780783
tp6255
Rp6256
(dp6257
g10
g11
sbag4
(g12
g6
F-74.47563843480113
tp6258
Rp6259
(dp6260
g10
g16
sbaa(lp6261
g4
(g5
g6
F40.66926907780455
tp6262
Rp6263
(dp6264
g10
g11
sbag4
(g12
g6
F-74.47563736339144
tp6265
Rp6266
(dp6267
g10
g16
sbaa(lp6268
g4
(g5
g6
F40.66926826200335
tp6269
Rp6270
(dp6271
g10
g11
sbag4
(g12
g6
F-74.47563629198608
tp6272
Rp6273
(dp6274
g10
g16
sbaa(lp6275
g4
(g5
g6
F40.66926744620215
tp6276
Rp6277
(dp6278
g10
g11
sbag4
(g12
g6
F-74.47563522058076
tp6279
Rp6280
(dp6281
g10
g16
sbaa(lp6282
g4
(g5
g6
F40.669266630400934
tp6283
Rp6284
(dp6285
g10
g11
sbag4
(g12
g6
F-74.47563414917545
tp6286
Rp6287
(dp6288
g10
g16
sbaa(lp6289
g4
(g5
g6
F40.669265814599704
tp6290
Rp6291
(dp6292
g10
g11
sbag4
(g12
g6
F-74.47563307777017
tp6293
Rp6294
(dp6295
g10
g16
sbaa(lp6296
g4
(g5
g6
F40.66926499879846
tp6297
Rp6298
(dp6299
g10
g11
sbag4
(g12
g6
F-74.4756320063649
tp6300
Rp6301
(dp6302
g10
g16
sbaa(lp6303
g4
(g5
g6
F40.669264998795114
tp6304
Rp6305
(dp6306
g10
g11
sbag4
(g12
g6
F-74.47563093495528
tp6307
Rp6308
(dp6309
g10
g16
sbaa(lp6310
g4
(g5
g6
F40.66926499879176
tp6311
Rp6312
(dp6313
g10
g11
sbag4
(g12
g6
F-74.47562986354565
tp6314
Rp6315
(dp6316
g10
g16
sbaa(lp6317
g4
(g5
g6
F40.66926418299049
tp6318
Rp6319
(dp6320
g10
g11
sbag4
(g12
g6
F-74.47562879214045
tp6321
Rp6322
(dp6323
g10
g16
sbaa(lp6324
g4
(g5
g6
F40.669264998785025
tp6325
Rp6326
(dp6327
g10
g11
sbag4
(g12
g6
F-74.4756277207264
tp6328
Rp6329
(dp6330
g10
g16
sbaa(lp6331
g4
(g5
g6
F40.66926581457954
tp6332
Rp6333
(dp6334
g10
g11
sbag4
(g12
g6
F-74.47562664931232
tp6335
Rp6336
(dp6337
g10
g16
sbaa(lp6338
g4
(g5
g6
F40.66926663037404
tp6339
Rp6340
(dp6341
g10
g11
sbag4
(g12
g6
F-74.47562557789821
tp6342
Rp6343
(dp6344
g10
g16
sbaa(lp6345
g4
(g5
g6
F40.66926744616855
tp6346
Rp6347
(dp6348
g10
g11
sbag4
(g12
g6
F-74.47562450648407
tp6349
Rp6350
(dp6351
g10
g16
sbaa(lp6352
g4
(g5
g6
F40.66926826196303
tp6353
Rp6354
(dp6355
g10
g11
sbag4
(g12
g6
F-74.47562343506992
tp6356
Rp6357
(dp6358
g10
g16
sbaa(lp6359
g4
(g5
g6
F40.66926826195961
tp6360
Rp6361
(dp6362
g10
g11
sbag4
(g12
g6
F-74.47562236366024
tp6363
Rp6364
(dp6365
g10
g16
sbaa(lp6366
g4
(g5
g6
F40.66926907775408
tp6367
Rp6368
(dp6369
g10
g11
sbag4
(g12
g6
F-74.47562129224603
tp6370
Rp6371
(dp6372
g10
g16
sbaa(lp6373
g4
(g5
g6
F40.66926989354854
tp6374
Rp6375
(dp6376
g10
g11
sbag4
(g12
g6
F-74.47562022083181
tp6377
Rp6378
(dp6379
g10
g16
sbaa(lp6380
g4
(g5
g6
F40.66927070934298
tp6381
Rp6382
(dp6383
g10
g11
sbag4
(g12
g6
F-74.47561914941755
tp6384
Rp6385
(dp6386
g10
g16
sbaa(lp6387
g4
(g5
g6
F40.66927152513743
tp6388
Rp6389
(dp6390
g10
g11
sbag4
(g12
g6
F-74.47561807800328
tp6391
Rp6392
(dp6393
g10
g16
sbaa(lp6394
g4
(g5
g6
F40.66927070933605
tp6395
Rp6396
(dp6397
g10
g11
sbag4
(g12
g6
F-74.47561700659811
tp6398
Rp6399
(dp6400
g10
g16
sbaa(lp6401
g4
(g5
g6
F40.66927070933257
tp6402
Rp6403
(dp6404
g10
g11
sbag4
(g12
g6
F-74.4756159351884
tp6405
Rp6406
(dp6407
g10
g16
sbaa(lp6408
g4
(g5
g6
F40.669271525126966
tp6409
Rp6410
(dp6411
g10
g11
sbag4
(g12
g6
F-74.47561486377408
tp6412
Rp6413
(dp6414
g10
g16
sbaa(lp6415
g4
(g5
g6
F40.66927070932556
tp6416
Rp6417
(dp6418
g10
g11
sbag4
(g12
g6
F-74.47561379236896
tp6419
Rp6420
(dp6421
g10
g16
sbaa(lp6422
g4
(g5
g6
F40.66926989352766
tp6423
Rp6424
(dp6425
g10
g11
sbag4
(g12
g6
F-74.47561379237357
tp6426
Rp6427
(dp6428
g10
g16
sbaa(lp6429
g4
(g5
g6
F40.66926907772976
tp6430
Rp6431
(dp6432
g10
g11
sbag4
(g12
g6
F-74.47561379237818
tp6433
Rp6434
(dp6435
g10
g16
sbaa(lp6436
g4
(g5
g6
F40.66926826192834
tp6437
Rp6438
(dp6439
g10
g11
sbag4
(g12
g6
F-74.4756127209731
tp6440
Rp6441
(dp6442
g10
g16
sbaa(lp6443
g4
(g5
g6
F40.66926826192481
tp6444
Rp6445
(dp6446
g10
g11
sbag4
(g12
g6
F-74.47561164956343
tp6447
Rp6448
(dp6449
g10
g16
sbaa(lp6450
g4
(g5
g6
F40.66926744612338
tp6451
Rp6452
(dp6453
g10
g11
sbag4
(g12
g6
F-74.4756105781584
tp6454
Rp6455
(dp6456
g10
g16
sbaa(lp6457
g4
(g5
g6
F40.66926744611983
tp6458
Rp6459
(dp6460
g10
g11
sbag4
(g12
g6
F-74.47560950674873
tp6461
Rp6462
(dp6463
g10
g16
sbaa(lp6464
g4
(g5
g6
F40.66926744611628
tp6465
Rp6466
(dp6467
g10
g11
sbag4
(g12
g6
F-74.47560843533905
tp6468
Rp6469
(dp6470
g10
g16
sbaa(lp6471
g4
(g5
g6
F40.66926744611271
tp6472
Rp6473
(dp6474
g10
g11
sbag4
(g12
g6
F-74.4756073639294
tp6475
Rp6476
(dp6477
g10
g16
sbaa(lp6478
g4
(g5
g6
F40.66926826190704
tp6479
Rp6480
(dp6481
g10
g11
sbag4
(g12
g6
F-74.47560629251502
tp6482
Rp6483
(dp6484
g10
g16
sbaa(lp6485
g4
(g5
g6
F40.66926826190346
tp6486
Rp6487
(dp6488
g10
g11
sbag4
(g12
g6
F-74.47560522110534
tp6489
Rp6490
(dp6491
g10
g16
sbaa(lp6492
g4
(g5
g6
F40.669268261899866
tp6493
Rp6494
(dp6495
g10
g11
sbag4
(g12
g6
F-74.47560414969567
tp6496
Rp6497
(dp6498
g10
g16
sbaa(lp6499
g4
(g5
g6
F40.66926826189626
tp6500
Rp6501
(dp6502
g10
g11
sbag4
(g12
g6
F-74.47560307828599
tp6503
Rp6504
(dp6505
g10
g16
sbaa(lp6506
g4
(g5
g6
F40.66926826189265
tp6507
Rp6508
(dp6509
g10
g11
sbag4
(g12
g6
F-74.4756020068763
tp6510
Rp6511
(dp6512
g10
g16
sbaa(lp6513
g4
(g5
g6
F40.66926826188902
tp6514
Rp6515
(dp6516
g10
g11
sbag4
(g12
g6
F-74.47560093546662
tp6517
Rp6518
(dp6519
g10
g16
sbaa(lp6520
g4
(g5
g6
F40.669268261885385
tp6521
Rp6522
(dp6523
g10
g11
sbag4
(g12
g6
F-74.47559986405695
tp6524
Rp6525
(dp6526
g10
g16
sbaa(lp6527
g4
(g5
g6
F40.66926826188175
tp6528
Rp6529
(dp6530
g10
g11
sbag4
(g12
g6
F-74.47559879264726
tp6531
Rp6532
(dp6533
g10
g16
sbaa(lp6534
g4
(g5
g6
F40.669268261878095
tp6535
Rp6536
(dp6537
g10
g11
sbag4
(g12
g6
F-74.47559772123758
tp6538
Rp6539
(dp6540
g10
g16
sbaa(lp6541
g4
(g5
g6
F40.66926826187443
tp6542
Rp6543
(dp6544
g10
g11
sbag4
(g12
g6
F-74.47559664982789
tp6545
Rp6546
(dp6547
g10
g16
sbaa(lp6548
g4
(g5
g6
F40.669268261870755
tp6549
Rp6550
(dp6551
g10
g11
sbag4
(g12
g6
F-74.47559557841822
tp6552
Rp6553
(dp6554
g10
g16
sbaa(lp6555
g4
(g5
g6
F40.66926826186708
tp6556
Rp6557
(dp6558
g10
g11
sbag4
(g12
g6
F-74.47559450700854
tp6559
Rp6560
(dp6561
g10
g16
sbaa(lp6562
g4
(g5
g6
F40.66926826186338
tp6563
Rp6564
(dp6565
g10
g11
sbag4
(g12
g6
F-74.47559343559885
tp6566
Rp6567
(dp6568
g10
g16
sbaa(lp6569
g4
(g5
g6
F40.66926826185968
tp6570
Rp6571
(dp6572
g10
g11
sbag4
(g12
g6
F-74.47559236418918
tp6573
Rp6574
(dp6575
g10
g16
sbaa(lp6576
g4
(g5
g6
F40.66926826185597
tp6577
Rp6578
(dp6579
g10
g11
sbag4
(g12
g6
F-74.4755912927795
tp6580
Rp6581
(dp6582
g10
g16
sbaa(lp6583
g4
(g5
g6
F40.66926826185224
tp6584
Rp6585
(dp6586
g10
g11
sbag4
(g12
g6
F-74.47559022136981
tp6587
Rp6588
(dp6589
g10
g16
sbaa(lp6590
g4
(g5
g6
F40.6692682618485
tp6591
Rp6592
(dp6593
g10
g11
sbag4
(g12
g6
F-74.47558914996013
tp6594
Rp6595
(dp6596
g10
g16
sbaa(lp6597
g4
(g5
g6
F40.66926826184477
tp6598
Rp6599
(dp6600
g10
g11
sbag4
(g12
g6
F-74.47558807855046
tp6601
Rp6602
(dp6603
g10
g16
sbaa(lp6604
g4
(g5
g6
F40.66926744604311
tp6605
Rp6606
(dp6607
g10
g11
sbag4
(g12
g6
F-74.4755870071457
tp6608
Rp6609
(dp6610
g10
g16
sbaa(lp6611
g4
(g5
g6
F40.66926826183725
tp6612
Rp6613
(dp6614
g10
g11
sbag4
(g12
g6
F-74.47558593573109
tp6615
Rp6616
(dp6617
g10
g16
sbaa(lp6618
g4
(g5
g6
F40.66926826183348
tp6619
Rp6620
(dp6621
g10
g11
sbag4
(g12
g6
F-74.47558486432142
tp6622
Rp6623
(dp6624
g10
g16
sbaa(lp6625
g4
(g5
g6
F40.6692690776276
tp6626
Rp6627
(dp6628
g10
g11
sbag4
(g12
g6
F-74.47558379290676
tp6629
Rp6630
(dp6631
g10
g16
sbaa(lp6632
g4
(g5
g6
F40.669269893421706
tp6633
Rp6634
(dp6635
g10
g11
sbag4
(g12
g6
F-74.47558272149207
tp6636
Rp6637
(dp6638
g10
g16
sbaa(lp6639
g4
(g5
g6
F40.669269893417905
tp6640
Rp6641
(dp6642
g10
g11
sbag4
(g12
g6
F-74.47558165008238
tp6643
Rp6644
(dp6645
g10
g16
sbaa(lp6646
g4
(g5
g6
F40.66927070921199
tp6647
Rp6648
(dp6649
g10
g11
sbag4
(g12
g6
F-74.47558057866765
tp6650
Rp6651
(dp6652
g10
g16
sbaa(lp6653
g4
(g5
g6
F40.6692715250099
tp6654
Rp6655
(dp6656
g10
g11
sbag4
(g12
g6
F-74.47558057866263
tp6657
Rp6658
(dp6659
g10
g16
sbaa(lp6660
g4
(g5
g6
F40.6692723408078
tp6661
Rp6662
(dp6663
g10
g11
sbag4
(g12
g6
F-74.47558057865761
tp6664
Rp6665
(dp6666
g10
g16
sbaa(lp6667
g4
(g5
g6
F40.6692731566057
tp6668
Rp6669
(dp6670
g10
g11
sbag4
(g12
g6
F-74.47558057865261
tp6671
Rp6672
(dp6673
g10
g16
sbaa(lp6674
g4
(g5
g6
F40.669273972399786
tp6675
Rp6676
(dp6677
g10
g11
sbag4
(g12
g6
F-74.47557950723782
tp6678
Rp6679
(dp6680
g10
g16
sbaa(lp6681
g4
(g5
g6
F40.66927397239594
tp6682
Rp6683
(dp6684
g10
g11
sbag4
(g12
g6
F-74.47557843582804
tp6685
Rp6686
(dp6687
g10
g16
sbaa(lp6688
g4
(g5
g6
F40.669274788190016
tp6689
Rp6690
(dp6691
g10
g11
sbag4
(g12
g6
F-74.47557736441323
tp6692
Rp6693
(dp6694
g10
g16
sbaa(lp6695
g4
(g5
g6
F40.66927478818616
tp6696
Rp6697
(dp6698
g10
g11
sbag4
(g12
g6
F-74.47557629300344
tp6699
Rp6700
(dp6701
g10
g16
sbaa(lp6702
g4
(g5
g6
F40.6692747881823
tp6703
Rp6704
(dp6705
g10
g11
sbag4
(g12
g6
F-74.47557522159366
tp6706
Rp6707
(dp6708
g10
g16
sbaa(lp6709
g4
(g5
g6
F40.66927478817843
tp6710
Rp6711
(dp6712
g10
g11
sbag4
(g12
g6
F-74.47557415018386
tp6713
Rp6714
(dp6715
g10
g16
sbaa(lp6716
g4
(g5
g6
F40.66927478817454
tp6717
Rp6718
(dp6719
g10
g11
sbag4
(g12
g6
F-74.47557307877408
tp6720
Rp6721
(dp6722
g10
g16
sbaa(lp6723
g4
(g5
g6
F40.66927560396855
tp6724
Rp6725
(dp6726
g10
g11
sbag4
(g12
g6
F-74.47557200735918
tp6727
Rp6728
(dp6729
g10
g16
sbaa(lp6730
g4
(g5
g6
F40.66927641976255
tp6731
Rp6732
(dp6733
g10
g11
sbag4
(g12
g6
F-74.47557093594425
tp6734
Rp6735
(dp6736
g10
g16
sbaa(lp6737
g4
(g5
g6
F40.66927723555654
tp6738
Rp6739
(dp6740
g10
g11
sbag4
(g12
g6
F-74.47556986452929
tp6741
Rp6742
(dp6743
g10
g16
sbaa(lp6744
g4
(g5
g6
F40.66927805135052
tp6745
Rp6746
(dp6747
g10
g11
sbag4
(g12
g6
F-74.4755687931143
tp6748
Rp6749
(dp6750
g10
g16
sbaa(lp6751
g4
(g5
g6
F40.66927805134658
tp6752
Rp6753
(dp6754
g10
g11
sbag4
(g12
g6
F-74.47556772170448
tp6755
Rp6756
(dp6757
g10
g16
sbaa(lp6758
g4
(g5
g6
F40.669278051342644
tp6759
Rp6760
(dp6761
g10
g11
sbag4
(g12
g6
F-74.47556665029464
tp6762
Rp6763
(dp6764
g10
g16
sbaa(lp6765
g4
(g5
g6
F40.669278051338694
tp6766
Rp6767
(dp6768
g10
g11
sbag4
(g12
g6
F-74.4755655788848
tp6769
Rp6770
(dp6771
g10
g16
sbaa(lp6772
g4
(g5
g6
F40.66927723553683
tp6773
Rp6774
(dp6775
g10
g11
sbag4
(g12
g6
F-74.47556450748017
tp6776
Rp6777
(dp6778
g10
g16
sbaa(lp6779
g4
(g5
g6
F40.66927723553286
tp6780
Rp6781
(dp6782
g10
g11
sbag4
(g12
g6
F-74.47556343607035
tp6783
Rp6784
(dp6785
g10
g16
sbaa(lp6786
g4
(g5
g6
F40.669276419730984
tp6787
Rp6788
(dp6789
g10
g11
sbag4
(g12
g6
F-74.47556236466576
tp6790
Rp6791
(dp6792
g10
g16
sbaa(lp6793
g4
(g5
g6
F40.66927560392908
tp6794
Rp6795
(dp6796
g10
g11
sbag4
(g12
g6
F-74.4755612932612
tp6797
Rp6798
(dp6799
g10
g16
sbaa(lp6800
g4
(g5
g6
F40.669274788127176
tp6801
Rp6802
(dp6803
g10
g11
sbag4
(g12
g6
F-74.47556022185667
tp6804
Rp6805
(dp6806
g10
g16
sbaa(lp6807
g4
(g5
g6
F40.669273972325264
tp6808
Rp6809
(dp6810
g10
g11
sbag4
(g12
g6
F-74.47555915045216
tp6811
Rp6812
(dp6813
g10
g16
sbaa(lp6814
g4
(g5
g6
F40.66927397232124
tp6815
Rp6816
(dp6817
g10
g11
sbag4
(g12
g6
F-74.47555807904239
tp6818
Rp6819
(dp6820
g10
g16
sbaa(lp6821
g4
(g5
g6
F40.66927397231721
tp6822
Rp6823
(dp6824
g10
g11
sbag4
(g12
g6
F-74.4755570076326
tp6825
Rp6826
(dp6827
g10
g16
sbaa(lp6828
g4
(g5
g6
F40.66927397231318
tp6829
Rp6830
(dp6831
g10
g11
sbag4
(g12
g6
F-74.47555593622283
tp6832
Rp6833
(dp6834
g10
g16
sbaa(lp6835
g4
(g5
g6
F40.66927397230912
tp6836
Rp6837
(dp6838
g10
g11
sbag4
(g12
g6
F-74.47555486481306
tp6839
Rp6840
(dp6841
g10
g16
sbaa(lp6842
g4
(g5
g6
F40.669273972305064
tp6843
Rp6844
(dp6845
g10
g11
sbag4
(g12
g6
F-74.4755537934033
tp6846
Rp6847
(dp6848
g10
g16
sbaa(lp6849
g4
(g5
g6
F40.669273972300985
tp6850
Rp6851
(dp6852
g10
g11
sbag4
(g12
g6
F-74.47555272199352
tp6853
Rp6854
(dp6855
g10
g16
sbaa(lp6856
g4
(g5
g6
F40.66927397229691
tp6857
Rp6858
(dp6859
g10
g11
sbag4
(g12
g6
F-74.47555165058375
tp6860
Rp6861
(dp6862
g10
g16
sbaa(lp6863
g4
(g5
g6
F40.669273972292814
tp6864
Rp6865
(dp6866
g10
g11
sbag4
(g12
g6
F-74.47555057917397
tp6867
Rp6868
(dp6869
g10
g16
sbaa(lp6870
g4
(g5
g6
F40.669274788086625
tp6871
Rp6872
(dp6873
g10
g11
sbag4
(g12
g6
F-74.47554950775881
tp6874
Rp6875
(dp6876
g10
g16
sbaa(lp6877
g4
(g5
g6
F40.66927478808251
tp6878
Rp6879
(dp6880
g10
g11
sbag4
(g12
g6
F-74.47554843634903
tp6881
Rp6882
(dp6883
g10
g16
sbaa(lp6884
g4
(g5
g6
F40.66927478807839
tp6885
Rp6886
(dp6887
g10
g11
sbag4
(g12
g6
F-74.47554736493925
tp6888
Rp6889
(dp6890
g10
g16
sbaa(lp6891
g4
(g5
g6
F40.669274788074254
tp6892
Rp6893
(dp6894
g10
g11
sbag4
(g12
g6
F-74.47554629352946
tp6895
Rp6896
(dp6897
g10
g16
sbaa(lp6898
g4
(g5
g6
F40.66927478807011
tp6899
Rp6900
(dp6901
g10
g11
sbag4
(g12
g6
F-74.47554522211968
tp6902
Rp6903
(dp6904
g10
g16
sbaa(lp6905
g4
(g5
g6
F40.669275603863866
tp6906
Rp6907
(dp6908
g10
g11
sbag4
(g12
g6
F-74.47554415070442
tp6909
Rp6910
(dp6911
g10
g16
sbaa(lp6912
g4
(g5
g6
F40.6692756038597
tp6913
Rp6914
(dp6915
g10
g11
sbag4
(g12
g6
F-74.47554307929462
tp6916
Rp6917
(dp6918
g10
g16
sbaa(lp6919
g4
(g5
g6
F40.66927560385554
tp6920
Rp6921
(dp6922
g10
g11
sbag4
(g12
g6
F-74.47554200788483
tp6923
Rp6924
(dp6925
g10
g16
sbaa(lp6926
g4
(g5
g6
F40.66927478805345
tp6927
Rp6928
(dp6929
g10
g11
sbag4
(g12
g6
F-74.47554093648053
tp6930
Rp6931
(dp6932
g10
g16
sbaa(lp6933
g4
(g5
g6
F40.66927478804926
tp6934
Rp6935
(dp6936
g10
g11
sbag4
(g12
g6
F-74.47553986507074
tp6937
Rp6938
(dp6939
g10
g16
sbaa(lp6940
g4
(g5
g6
F40.66927478804506
tp6941
Rp6942
(dp6943
g10
g11
sbag4
(g12
g6
F-74.47553879366096
tp6944
Rp6945
(dp6946
g10
g16
sbaa(lp6947
g4
(g5
g6
F40.66927478804086
tp6948
Rp6949
(dp6950
g10
g11
sbag4
(g12
g6
F-74.47553772225118
tp6951
Rp6952
(dp6953
g10
g16
sbaa(lp6954
g4
(g5
g6
F40.66927478803663
tp6955
Rp6956
(dp6957
g10
g11
sbag4
(g12
g6
F-74.47553665084139
tp6958
Rp6959
(dp6960
g10
g16
sbaa(lp6961
g4
(g5
g6
F40.6692756038303
tp6962
Rp6963
(dp6964
g10
g11
sbag4
(g12
g6
F-74.47553557942604
tp6965
Rp6966
(dp6967
g10
g16
sbaa(lp6968
g4
(g5
g6
F40.669276419628204
tp6969
Rp6970
(dp6971
g10
g11
sbag4
(g12
g6
F-74.47553557942048
tp6972
Rp6973
(dp6974
g10
g16
sbaa(lp6975
g4
(g5
g6
F40.6692772354261
tp6976
Rp6977
(dp6978
g10
g11
sbag4
(g12
g6
F-74.47553557941492
tp6979
Rp6980
(dp6981
g10
g16
sbaa(lp6982
g4
(g5
g6
F40.66927805122401
tp6983
Rp6984
(dp6985
g10
g11
sbag4
(g12
g6
F-74.47553557940935
tp6986
Rp6987
(dp6988
g10
g16
sbaa(lp6989
g4
(g5
g6
F40.66927886702191
tp6990
Rp6991
(dp6992
g10
g11
sbag4
(g12
g6
F-74.4755355794038
tp6993
Rp6994
(dp6995
g10
g16
sbaa(lp6996
g4
(g5
g6
F40.66927968281981
tp6997
Rp6998
(dp6999
g10
g11
sbag4
(g12
g6
F-74.47553557939823
tp7000
Rp7001
(dp7002
g10
g16
sbaa(lp7003
g4
(g5
g6
F40.66928049861771
tp7004
Rp7005
(dp7006
g10
g11
sbag4
(g12
g6
F-74.47553557939267
tp7007
Rp7008
(dp7009
g10
g16
sbaa(lp7010
g4
(g5
g6
F40.66928131441562
tp7011
Rp7012
(dp7013
g10
g11
sbag4
(g12
g6
F-74.4755355793871
tp7014
Rp7015
(dp7016
g10
g16
sbaa(lp7017
g4
(g5
g6
F40.669282130209275
tp7018
Rp7019
(dp7020
g10
g11
sbag4
(g12
g6
F-74.47553450797164
tp7021
Rp7022
(dp7023
g10
g16
sbaa(lp7024
g4
(g5
g6
F40.66928213020503
tp7025
Rp7026
(dp7027
g10
g11
sbag4
(g12
g6
F-74.47553343656173
tp7028
Rp7029
(dp7030
g10
g16
sbaa(lp7031
g4
(g5
g6
F40.66928131440287
tp7032
Rp7033
(dp7034
g10
g11
sbag4
(g12
g6
F-74.47553236515743
tp7035
Rp7036
(dp7037
g10
g16
sbaa(lp7038
g4
(g5
g6
F40.6692813143986
tp7039
Rp7040
(dp7041
g10
g11
sbag4
(g12
g6
F-74.47553129374755
tp7042
Rp7043
(dp7044
g10
g16
sbaa(lp7045
g4
(g5
g6
F40.669280498596414
tp7046
Rp7047
(dp7048
g10
g11
sbag4
(g12
g6
F-74.47553022234328
tp7049
Rp7050
(dp7051
g10
g16
sbaa(lp7052
g4
(g5
g6
F40.66928049859213
tp7053
Rp7054
(dp7055
g10
g11
sbag4
(g12
g6
F-74.47552915093341
tp7056
Rp7057
(dp7058
g10
g16
sbaa(lp7059
g4
(g5
g6
F40.66928131438573
tp7060
Rp7061
(dp7062
g10
g11
sbag4
(g12
g6
F-74.47552807951789
tp7063
Rp7064
(dp7065
g10
g16
sbaa(lp7066
g4
(g5
g6
F40.66928213017932
tp7067
Rp7068
(dp7069
g10
g11
sbag4
(g12
g6
F-74.47552700810232
tp7070
Rp7071
(dp7072
g10
g16
sbaa(lp7073
g4
(g5
g6
F40.669282130175006
tp7074
Rp7075
(dp7076
g10
g11
sbag4
(g12
g6
F-74.47552593669242
tp7077
Rp7078
(dp7079
g10
g16
sbaa(lp7080
g4
(g5
g6
F40.66928294596857
tp7081
Rp7082
(dp7083
g10
g11
sbag4
(g12
g6
F-74.47552486527682
tp7084
Rp7085
(dp7086
g10
g16
sbaa(lp7087
g4
(g5
g6
F40.66928294596423
tp7088
Rp7089
(dp7090
g10
g11
sbag4
(g12
g6
F-74.47552379386691
tp7091
Rp7092
(dp7093
g10
g16
sbaa(lp7094
g4
(g5
g6
F40.66928294595987
tp7095
Rp7096
(dp7097
g10
g11
sbag4
(g12
g6
F-74.475522722457
tp7098
Rp7099
(dp7100
g10
g16
sbaa(lp7101
g4
(g5
g6
F40.669282945955516
tp7102
Rp7103
(dp7104
g10
g11
sbag4
(g12
g6
F-74.47552165104707
tp7105
Rp7106
(dp7107
g10
g16
sbaa(lp7108
g4
(g5
g6
F40.66928294595115
tp7109
Rp7110
(dp7111
g10
g11
sbag4
(g12
g6
F-74.47552057963716
tp7112
Rp7113
(dp7114
g10
g16
sbaa(lp7115
g4
(g5
g6
F40.66928294594677
tp7116
Rp7117
(dp7118
g10
g11
sbag4
(g12
g6
F-74.47551950822725
tp7119
Rp7120
(dp7121
g10
g16
sbaa(lp7122
g4
(g5
g6
F40.669282130144474
tp7123
Rp7124
(dp7125
g10
g11
sbag4
(g12
g6
F-74.47551843682311
tp7126
Rp7127
(dp7128
g10
g16
sbaa(lp7129
g4
(g5
g6
F40.66928131434218
tp7130
Rp7131
(dp7132
g10
g11
sbag4
(g12
g6
F-74.47551736541898
tp7133
Rp7134
(dp7135
g10
g16
sbaa(lp7136
g4
(g5
g6
F40.66928049853988
tp7137
Rp7138
(dp7139
g10
g11
sbag4
(g12
g6
F-74.4755162940149
tp7140
Rp7141
(dp7142
g10
g16
sbaa(lp7143
g4
(g5
g6
F40.66927968273755
tp7144
Rp7145
(dp7146
g10
g11
sbag4
(g12
g6
F-74.47551522261082
tp7147
Rp7148
(dp7149
g10
g16
sbaa(lp7150
g4
(g5
g6
F40.669278866935215
tp7151
Rp7152
(dp7153
g10
g11
sbag4
(g12
g6
F-74.47551415120678
tp7154
Rp7155
(dp7156
g10
g16
sbaa(lp7157
g4
(g5
g6
F40.669278051132885
tp7158
Rp7159
(dp7160
g10
g11
sbag4
(g12
g6
F-74.47551307980277
tp7161
Rp7162
(dp7163
g10
g16
sbaa(lp7164
g4
(g5
g6
F40.669277235330526
tp7165
Rp7166
(dp7167
g10
g11
sbag4
(g12
g6
F-74.47551200839878
tp7168
Rp7169
(dp7170
g10
g16
sbaa(lp7171
g4
(g5
g6
F40.66927641952817
tp7172
Rp7173
(dp7174
g10
g11
sbag4
(g12
g6
F-74.47551093699482
tp7175
Rp7176
(dp7177
g10
g16
sbaa(lp7178
g4
(g5
g6
F40.6692764195237
tp7179
Rp7180
(dp7181
g10
g11
sbag4
(g12
g6
F-74.47550986558501
tp7182
Rp7183
(dp7184
g10
g16
sbaa(lp7185
g4
(g5
g6
F40.669276419519214
tp7186
Rp7187
(dp7188
g10
g11
sbag4
(g12
g6
F-74.4755087941752
tp7189
Rp7190
(dp7191
g10
g16
sbaa(lp7192
g4
(g5
g6
F40.66927641951473
tp7193
Rp7194
(dp7195
g10
g11
sbag4
(g12
g6
F-74.47550772276539
tp7196
Rp7197
(dp7198
g10
g16
sbaa(lp7199
g4
(g5
g6
F40.669275603712336
tp7200
Rp7201
(dp7202
g10
g11
sbag4
(g12
g6
F-74.4755066513615
tp7203
Rp7204
(dp7205
g10
g16
sbaa(lp7206
g4
(g5
g6
F40.66927478790992
tp7207
Rp7208
(dp7209
g10
g11
sbag4
(g12
g6
F-74.47550557995763
tp7210
Rp7211
(dp7212
g10
g16
sbaa(lp7213
g4
(g5
g6
F40.669273972112016
tp7214
Rp7215
(dp7216
g10
g11
sbag4
(g12
g6
F-74.47550557996355
tp7217
Rp7218
(dp7219
g10
g16
sbaa(lp7220
g4
(g5
g6
F40.66927315631412
tp7221
Rp7222
(dp7223
g10
g11
sbag4
(g12
g6
F-74.47550557996948
tp7224
Rp7225
(dp7226
g10
g16
sbaa(lp7227
g4
(g5
g6
F40.66927234051168
tp7228
Rp7229
(dp7230
g10
g11
sbag4
(g12
g6
F-74.47550450856566
tp7231
Rp7232
(dp7233
g10
g16
sbaa(lp7234
g4
(g5
g6
F40.66927152470926
tp7235
Rp7236
(dp7237
g10
g11
sbag4
(g12
g6
F-74.47550343716188
tp7238
Rp7239
(dp7240
g10
g16
sbaa(lp7241
g4
(g5
g6
F40.66927070890683
tp7242
Rp7243
(dp7244
g10
g11
sbag4
(g12
g6
F-74.4755023657581
tp7245
Rp7246
(dp7247
g10
g16
sbaa(lp7248
g4
(g5
g6
F40.669270708902275
tp7249
Rp7250
(dp7251
g10
g11
sbag4
(g12
g6
F-74.47550129434839
tp7252
Rp7253
(dp7254
g10
g16
sbaa(lp7255
g4
(g5
g6
F40.66927070889772
tp7256
Rp7257
(dp7258
g10
g11
sbag4
(g12
g6
F-74.47550022293866
tp7259
Rp7260
(dp7261
g10
g16
sbaa(lp7262
g4
(g5
g6
F40.66927070889315
tp7263
Rp7264
(dp7265
g10
g11
sbag4
(g12
g6
F-74.47549915152895
tp7266
Rp7267
(dp7268
g10
g16
sbaa(lp7269
g4
(g5
g6
F40.669269893090664
tp7270
Rp7271
(dp7272
g10
g11
sbag4
(g12
g6
F-74.47549808012525
tp7273
Rp7274
(dp7275
g10
g16
sbaa(lp7276
g4
(g5
g6
F40.66926907729276
tp7277
Rp7278
(dp7279
g10
g11
sbag4
(g12
g6
F-74.47549808013126
tp7280
Rp7281
(dp7282
g10
g16
sbaa(lp7283
g4
(g5
g6
F40.66926826149027
tp7284
Rp7285
(dp7286
g10
g11
sbag4
(g12
g6
F-74.4754970087276
tp7287
Rp7288
(dp7289
g10
g16
sbaa(lp7290
g4
(g5
g6
F40.669268261485676
tp7291
Rp7292
(dp7293
g10
g11
sbag4
(g12
g6
F-74.47549593731793
tp7294
Rp7295
(dp7296
g10
g16
sbaa(lp7297
g4
(g5
g6
F40.66926744568316
tp7298
Rp7299
(dp7300
g10
g11
sbag4
(g12
g6
F-74.4754948659143
tp7301
Rp7302
(dp7303
g10
g16
sbaa(lp7304
g4
(g5
g6
F40.66926744567855
tp7305
Rp7306
(dp7307
g10
g11
sbag4
(g12
g6
F-74.47549379450463
tp7308
Rp7309
(dp7310
g10
g16
sbaa(lp7311
g4
(g5
g6
F40.66926744567392
tp7312
Rp7313
(dp7314
g10
g11
sbag4
(g12
g6
F-74.47549272309497
tp7315
Rp7316
(dp7317
g10
g16
sbaa(lp7318
g4
(g5
g6
F40.66926744566928
tp7319
Rp7320
(dp7321
g10
g11
sbag4
(g12
g6
F-74.4754916516853
tp7322
Rp7323
(dp7324
g10
g16
sbaa(lp7325
g4
(g5
g6
F40.66926744566463
tp7326
Rp7327
(dp7328
g10
g11
sbag4
(g12
g6
F-74.47549058027563
tp7329
Rp7330
(dp7331
g10
g16
sbaa(lp7332
g4
(g5
g6
F40.66926744565997
tp7333
Rp7334
(dp7335
g10
g11
sbag4
(g12
g6
F-74.47548950886596
tp7336
Rp7337
(dp7338
g10
g16
sbaa(lp7339
g4
(g5
g6
F40.66926826145321
tp7340
Rp7341
(dp7342
g10
g11
sbag4
(g12
g6
F-74.47548843745017
tp7343
Rp7344
(dp7345
g10
g16
sbaa(lp7346
g4
(g5
g6
F40.66926744565063
tp7347
Rp7348
(dp7349
g10
g11
sbag4
(g12
g6
F-74.47548736604664
tp7350
Rp7351
(dp7352
g10
g16
sbaa(lp7353
g4
(g5
g6
F40.66926744564594
tp7354
Rp7355
(dp7356
g10
g11
sbag4
(g12
g6
F-74.47548629463697
tp7357
Rp7358
(dp7359
g10
g16
sbaa(lp7360
g4
(g5
g6
F40.66926826143915
tp7361
Rp7362
(dp7363
g10
g11
sbag4
(g12
g6
F-74.47548522322111
tp7364
Rp7365
(dp7366
g10
g16
sbaa(lp7367
g4
(g5
g6
F40.66926826143443
tp7368
Rp7369
(dp7370
g10
g11
sbag4
(g12
g6
F-74.47548415181144
tp7371
Rp7372
(dp7373
g10
g16
sbaa(lp7374
g4
(g5
g6
F40.66926826142972
tp7375
Rp7376
(dp7377
g10
g11
sbag4
(g12
g6
F-74.47548308040176
tp7378
Rp7379
(dp7380
g10
g16
sbaa(lp7381
g4
(g5
g6
F40.669267445627085
tp7382
Rp7383
(dp7384
g10
g11
sbag4
(g12
g6
F-74.4754820089983
tp7385
Rp7386
(dp7387
g10
g16
sbaa(lp7388
g4
(g5
g6
F40.66926744562235
tp7389
Rp7390
(dp7391
g10
g11
sbag4
(g12
g6
F-74.47548093758863
tp7392
Rp7393
(dp7394
g10
g16
sbaa(lp7395
g4
(g5
g6
F40.66926744561761
tp7396
Rp7397
(dp7398
g10
g11
sbag4
(g12
g6
F-74.47547986617896
tp7399
Rp7400
(dp7401
g10
g16
sbaa(lp7402
g4
(g5
g6
F40.66926744561285
tp7403
Rp7404
(dp7405
g10
g11
sbag4
(g12
g6
F-74.47547879476929
tp7406
Rp7407
(dp7408
g10
g16
sbaa(lp7409
g4
(g5
g6
F40.66926662981018
tp7410
Rp7411
(dp7412
g10
g11
sbag4
(g12
g6
F-74.47547772336588
tp7413
Rp7414
(dp7415
g10
g16
sbaa(lp7416
g4
(g5
g6
F40.669265814007495
tp7417
Rp7418
(dp7419
g10
g11
sbag4
(g12
g6
F-74.47547665196252
tp7420
Rp7421
(dp7422
g10
g16
sbaa(lp7423
g4
(g5
g6
F40.6692649982048
tp7424
Rp7425
(dp7426
g10
g11
sbag4
(g12
g6
F-74.47547558055916
tp7427
Rp7428
(dp7429
g10
g16
sbaa(lp7430
g4
(g5
g6
F40.669264182406906
tp7431
Rp7432
(dp7433
g10
g11
sbag4
(g12
g6
F-74.47547558056546
tp7434
Rp7435
(dp7436
g10
g16
sbaa(lp7437
g4
(g5
g6
F40.669263366608995
tp7438
Rp7439
(dp7440
g10
g11
sbag4
(g12
g6
F-74.47547558057175
tp7441
Rp7442
(dp7443
g10
g16
sbaa(lp7444
g4
(g5
g6
F40.669262550806295
tp7445
Rp7446
(dp7447
g10
g11
sbag4
(g12
g6
F-74.47547450916846
tp7448
Rp7449
(dp7450
g10
g16
sbaa(lp7451
g4
(g5
g6
F40.66926255080149
tp7452
Rp7453
(dp7454
g10
g11
sbag4
(g12
g6
F-74.47547343775888
tp7455
Rp7456
(dp7457
g10
g16
sbaa(lp7458
g4
(g5
g6
F40.66926173499877
tp7459
Rp7460
(dp7461
g10
g11
sbag4
(g12
g6
F-74.47547236635562
tp7462
Rp7463
(dp7464
g10
g16
sbaa(lp7465
g4
(g5
g6
F40.669261734993945
tp7466
Rp7467
(dp7468
g10
g11
sbag4
(g12
g6
F-74.47547129494605
tp7469
Rp7470
(dp7471
g10
g16
sbaa(lp7472
g4
(g5
g6
F40.66926173498911
tp7473
Rp7474
(dp7475
g10
g11
sbag4
(g12
g6
F-74.47547022353646
tp7476
Rp7477
(dp7478
g10
g16
sbaa(lp7479
g4
(g5
g6
F40.669261734984254
tp7480
Rp7481
(dp7482
g10
g11
sbag4
(g12
g6
F-74.47546915212689
tp7483
Rp7484
(dp7485
g10
g16
sbaa(lp7486
g4
(g5
g6
F40.6692617349794
tp7487
Rp7488
(dp7489
g10
g11
sbag4
(g12
g6
F-74.4754680807173
tp7490
Rp7491
(dp7492
g10
g16
sbaa(lp7493
g4
(g5
g6
F40.66926091917664
tp7494
Rp7495
(dp7496
g10
g11
sbag4
(g12
g6
F-74.47546700931413
tp7497
Rp7498
(dp7499
g10
g16
sbaa(lp7500
g4
(g5
g6
F40.669260103378726
tp7501
Rp7502
(dp7503
g10
g11
sbag4
(g12
g6
F-74.47546700932052
tp7504
Rp7505
(dp7506
g10
g16
sbaa(lp7507
g4
(g5
g6
F40.66925928757595
tp7508
Rp7509
(dp7510
g10
g11
sbag4
(g12
g6
F-74.47546593791739
tp7511
Rp7512
(dp7513
g10
g16
sbaa(lp7514
g4
(g5
g6
F40.669259287571066
tp7515
Rp7516
(dp7517
g10
g11
sbag4
(g12
g6
F-74.47546486650786
tp7518
Rp7519
(dp7520
g10
g16
sbaa(lp7521
g4
(g5
g6
F40.66925847176826
tp7522
Rp7523
(dp7524
g10
g11
sbag4
(g12
g6
F-74.47546379510476
tp7525
Rp7526
(dp7527
g10
g16
sbaas.