(dp0
VPicture 1
p1
(lp2
(lp3
ccopy_reg
_reconstructor
p4
(cpygeodesy.units
Lat
p5
c__builtin__
float
p6
F40.66931017198
tp7
Rp8
(dp9
V_name
p10
Vlat
p11
sbag4
(cpygeodesy.units
Lon
p12
g6
F-74.47584176100635
tp13
Rp14
(dp15
g10
Vlon
p16
sbaa(lp17
g4
(g5
g6
F40.66931008070015
tp18
Rp19
(dp20
g10
g11
sbag4
(g12
g6
F-74.47584186106461
tp21
Rp22
(dp23
g10
g16
sbaa(lp24
g4
(g5
g6
F40.66930998942029
tp25
Rp26
(dp27
g10
g11
sbag4
(g12
g6
F-74.47584196112287
tp28
Rp29
(dp30
g10
g16
sbaa(lp31
g4
(g5
g6
F40.66930997432719
tp32
Rp33
(dp34
g10
g11
sbag4
(g12
g6
F-74.47584218106147
tp35
Rp36
(dp37
g10
g16
sbaa(lp38
g4
(g5
g6
F40.6693099592341
tp39
Rp40
(dp41
g10
g11
sbag4
(g12
g6
F-74.47584240100005
tp42
Rp43
(dp44
g10
g16
sbaa(lp45
g4
(g5
g6
F40.66930994414101
tp46
Rp47
(dp48
g10
g11
sbag4
(g12
g6
F-74.47584262093865
tp49
Rp50
(dp51
g10
g16
sbaa(lp52
g4
(g5
g6
F40.66930992904791
tp53
Rp54
(dp55
g10
g11
sbag4
(g12
g6
F-74.47584284087723
tp56
Rp57
(dp58
g10
g16
sbaa(lp59
g4
(g5
g6
F40.66930991395483
tp60
Rp61
(dp62
g10
g11
sbag4
(g12
g6
F-74.47584306081583
tp63
Rp64
(dp65
g10
g16
sbaa(lp66
g4
(g5
g6
F40.669309898861734
tp67
Rp68
(dp69
g10
g11
sbag4
(g12
g6
F-74.47584328075442
tp70
Rp71
(dp72
g10
g16
sbaa(lp73
g4
(g5
g6
F40.66930988376863
tp74
Rp75
(dp76
g10
g11
sbag4
(g12
g6
F-74.475843500693
tp77
Rp78
(dp79
g10
g16
sbaa(lp80
g4
(g5
g6
F40.669309792488775
tp81
Rp82
(dp83
g10
g11
sbag4
(g12
g6
F-74.47584360075126
tp84
Rp85
(dp86
g10
g16
sbaa(lp87
g4
(g5
g6
F40.669309777395675
tp88
Rp89
(dp90
g10
g11
sbag4
(g12
g6
F-74.47584382068986
tp91
Rp92
(dp93
g10
g16
sbaa(lp94
g4
(g5
g6
F40.66930976230258
tp95
Rp96
(dp97
g10
g11
sbag4
(g12
g6
F-74.47584404062844
tp98
Rp99
(dp100
g10
g16
sbaa(lp101
g4
(g5
g6
F40.66930974720949
tp102
Rp103
(dp104
g10
g11
sbag4
(g12
g6
F-74.47584426056704
tp105
Rp106
(dp107
g10
g16
sbaa(lp108
g4
(g5
g6
F40.669309732116396
tp109
Rp110
(dp111
g10
g11
sbag4
(g12
g6
F-74.47584448050563
tp112
Rp113
(dp114
g10
g16
sbaa(lp115
g4
(g5
g6
F40.669309808303154
tp116
Rp117
(dp118
g10
g11
sbag4
(g12
g6
F-74.47584460038597
tp119
Rp120
(dp121
g10
g16
sbaa(lp122
g4
(g5
g6
F40.66930979321006
tp123
Rp124
(dp125
g10
g11
sbag4
(g12
g6
F-74.47584482032455
tp126
Rp127
(dp128
g10
g16
sbaa(lp129
g4
(g5
g6
F40.66930977811696
tp130
Rp131
(dp132
g10
g11
sbag4
(g12
g6
F-74.47584504026314
tp133
Rp134
(dp135
g10
g16
sbaa(lp136
g4
(g5
g6
F40.6693096868371
tp137
Rp138
(dp139
g10
g11
sbag4
(g12
g6
F-74.4758451403214
tp140
Rp141
(dp142
g10
g16
sbaa(lp143
g4
(g5
g6
F40.669309671744
tp144
Rp145
(dp146
g10
g11
sbag4
(g12
g6
F-74.47584536026
tp147
Rp148
(dp149
g10
g16
sbaa(lp150
g4
(g5
g6
F40.6693096566509
tp151
Rp152
(dp153
g10
g11
sbag4
(g12
g6
F-74.47584558019858
tp154
Rp155
(dp156
g10
g16
sbaa(lp157
g4
(g5
g6
F40.66930973283767
tp158
Rp159
(dp160
g10
g11
sbag4
(g12
g6
F-74.4758457000789
tp161
Rp162
(dp163
g10
g16
sbaa(lp164
g4
(g5
g6
F40.669309717744575
tp165
Rp166
(dp167
g10
g11
sbag4
(g12
g6
F-74.4758459200175
tp168
Rp169
(dp170
g10
g16
sbaa(lp171
g4
(g5
g6
F40.66930979393133
tp172
Rp173
(dp174
g10
g11
sbag4
(g12
g6
F-74.47584603989783
tp175
Rp176
(dp177
g10
g16
sbaa(lp178
g4
(g5
g6
F40.66930977883823
tp179
Rp180
(dp181
g10
g11
sbag4
(g12
g6
F-74.47584625983643
tp182
Rp183
(dp184
g10
g16
sbaa(lp185
g4
(g5
g6
F40.669309763745126
tp186
Rp187
(dp188
g10
g11
sbag4
(g12
g6
F-74.47584647977502
tp189
Rp190
(dp191
g10
g16
sbaa(lp192
g4
(g5
g6
F40.66930967246527
tp193
Rp194
(dp195
g10
g11
sbag4
(g12
g6
F-74.47584657983327
tp196
Rp197
(dp198
g10
g16
sbaa(lp199
g4
(g5
g6
F40.66930965737217
tp200
Rp201
(dp202
g10
g11
sbag4
(g12
g6
F-74.47584679977186
tp203
Rp204
(dp205
g10
g16
sbaa(lp206
g4
(g5
g6
F40.66930956609231
tp207
Rp208
(dp209
g10
g11
sbag4
(g12
g6
F-74.47584689983012
tp210
Rp211
(dp212
g10
g16
sbaa(lp213
g4
(g5
g6
F40.66930955099921
tp214
Rp215
(dp216
g10
g11
sbag4
(g12
g6
F-74.4758471197687
tp217
Rp218
(dp219
g10
g16
sbaa(lp220
g4
(g5
g6
F40.6693095359061
tp221
Rp222
(dp223
g10
g11
sbag4
(g12
g6
F-74.47584733970729
tp224
Rp225
(dp226
g10
g16
sbaa(lp227
g4
(g5
g6
F40.66930952081299
tp228
Rp229
(dp230
g10
g11
sbag4
(g12
g6
F-74.47584755964589
tp231
Rp232
(dp233
g10
g16
sbaa(lp234
g4
(g5
g6
F40.66930942953313
tp235
Rp236
(dp237
g10
g11
sbag4
(g12
g6
F-74.47584765970413
tp238
Rp239
(dp240
g10
g16
sbaa(lp241
g4
(g5
g6
F40.669309414440036
tp242
Rp243
(dp244
g10
g11
sbag4
(g12
g6
F-74.47584787964273
tp245
Rp246
(dp247
g10
g16
sbaa(lp248
g4
(g5
g6
F40.669309399346936
tp249
Rp250
(dp251
g10
g11
sbag4
(g12
g6
F-74.47584809958131
tp252
Rp253
(dp254
g10
g16
sbaa(lp255
g4
(g5
g6
F40.66930938425382
tp256
Rp257
(dp258
g10
g11
sbag4
(g12
g6
F-74.4758483195199
tp259
Rp260
(dp261
g10
g16
sbaa(lp262
g4
(g5
g6
F40.66930936916073
tp263
Rp264
(dp265
g10
g11
sbag4
(g12
g6
F-74.47584853945848
tp266
Rp267
(dp268
g10
g16
sbaa(lp269
g4
(g5
g6
F40.66930935406762
tp270
Rp271
(dp272
g10
g11
sbag4
(g12
g6
F-74.47584875939708
tp273
Rp274
(dp275
g10
g16
sbaa(lp276
g4
(g5
g6
F40.66930943025438
tp277
Rp278
(dp279
g10
g11
sbag4
(g12
g6
F-74.47584887927741
tp280
Rp281
(dp282
g10
g16
sbaa(lp283
g4
(g5
g6
F40.66930950644114
tp284
Rp285
(dp286
g10
g11
sbag4
(g12
g6
F-74.47584899915775
tp287
Rp288
(dp289
g10
g16
sbaa(lp290
g4
(g5
g6
F40.66930949134803
tp291
Rp292
(dp293
g10
g11
sbag4
(g12
g6
F-74.47584921909633
tp294
Rp295
(dp296
g10
g16
sbaa(lp297
g4
(g5
g6
F40.669309400068165
tp298
Rp299
(dp300
g10
g11
sbag4
(g12
g6
F-74.47584931915459
tp301
Rp302
(dp303
g10
g16
sbaa(lp304
g4
(g5
g6
F40.66930930878831
tp305
Rp306
(dp307
g10
g11
sbag4
(g12
g6
F-74.47584941921284
tp308
Rp309
(dp310
g10
g16
sbaa(lp311
g4
(g5
g6
F40.66930921750845
tp312
Rp313
(dp314
g10
g11
sbag4
(g12
g6
F-74.4758495192711
tp315
Rp316
(dp317
g10
g16
sbaa(lp318
g4
(g5
g6
F40.669309126228576
tp319
Rp320
(dp321
g10
g11
sbag4
(g12
g6
F-74.47584961932934
tp322
Rp323
(dp324
g10
g16
sbaa(lp325
g4
(g5
g6
F40.66930903494871
tp326
Rp327
(dp328
g10
g11
sbag4
(g12
g6
F-74.47584971938758
tp329
Rp330
(dp331
g10
g16
sbaa(lp332
g4
(g5
g6
F40.66930894366885
tp333
Rp334
(dp335
g10
g11
sbag4
(g12
g6
F-74.47584981944583
tp336
Rp337
(dp338
g10
g16
sbaa(lp339
g4
(g5
g6
F40.66930885238898
tp340
Rp341
(dp342
g10
g11
sbag4
(g12
g6
F-74.47584991950409
tp343
Rp344
(dp345
g10
g16
sbaa(lp346
g4
(g5
g6
F40.66930883729587
tp347
Rp348
(dp349
g10
g11
sbag4
(g12
g6
F-74.47585013944267
tp350
Rp351
(dp352
g10
g16
sbaa(lp353
g4
(g5
g6
F40.669308822202765
tp354
Rp355
(dp356
g10
g11
sbag4
(g12
g6
F-74.47585035938125
tp357
Rp358
(dp359
g10
g16
sbaa(lp360
g4
(g5
g6
F40.669308807109665
tp361
Rp362
(dp363
g10
g11
sbag4
(g12
g6
F-74.47585057931984
tp364
Rp365
(dp366
g10
g16
sbaa(lp367
g4
(g5
g6
F40.669308883296424
tp368
Rp369
(dp370
g10
g11
sbag4
(g12
g6
F-74.47585069920018
tp371
Rp372
(dp373
g10
g16
sbaa(lp374
g4
(g5
g6
F40.669308868203316
tp375
Rp376
(dp377
g10
g11
sbag4
(g12
g6
F-74.47585091913876
tp378
Rp379
(dp380
g10
g16
sbaa(lp381
g4
(g5
g6
F40.669308853110195
tp382
Rp383
(dp384
g10
g11
sbag4
(g12
g6
F-74.47585113907735
tp385
Rp386
(dp387
g10
g16
sbaa(lp388
g4
(g5
g6
F40.66930883801709
tp389
Rp390
(dp391
g10
g11
sbag4
(g12
g6
F-74.47585135901593
tp392
Rp393
(dp394
g10
g16
sbaa(lp395
g4
(g5
g6
F40.66930882292398
tp396
Rp397
(dp398
g10
g11
sbag4
(g12
g6
F-74.47585157895452
tp399
Rp400
(dp401
g10
g16
sbaa(lp402
g4
(g5
g6
F40.669308807830866
tp403
Rp404
(dp405
g10
g11
sbag4
(g12
g6
F-74.4758517988931
tp406
Rp407
(dp408
g10
g16
sbaa(lp409
g4
(g5
g6
F40.66930888401762
tp410
Rp411
(dp412
g10
g11
sbag4
(g12
g6
F-74.47585191877344
tp413
Rp414
(dp415
g10
g16
sbaa(lp416
g4
(g5
g6
F40.669308960204376
tp417
Rp418
(dp419
g10
g11
sbag4
(g12
g6
F-74.47585203865378
tp420
Rp421
(dp422
g10
g16
sbaa(lp423
g4
(g5
g6
F40.66930894511126
tp424
Rp425
(dp426
g10
g11
sbag4
(g12
g6
F-74.47585225859237
tp427
Rp428
(dp429
g10
g16
sbaa(lp430
g4
(g5
g6
F40.66930902129803
tp431
Rp432
(dp433
g10
g11
sbag4
(g12
g6
F-74.47585237847271
tp434
Rp435
(dp436
g10
g16
sbaa(lp437
g4
(g5
g6
F40.669309097484785
tp438
Rp439
(dp440
g10
g11
sbag4
(g12
g6
F-74.47585249835305
tp441
Rp442
(dp443
g10
g16
sbaa(lp444
g4
(g5
g6
F40.669309173671536
tp445
Rp446
(dp447
g10
g11
sbag4
(g12
g6
F-74.47585261823339
tp448
Rp449
(dp450
g10
g16
sbaa(lp451
g4
(g5
g6
F40.669309249858294
tp452
Rp453
(dp454
g10
g11
sbag4
(g12
g6
F-74.47585273811373
tp455
Rp456
(dp457
g10
g16
sbaa(lp458
g4
(g5
g6
F40.669309326045045
tp459
Rp460
(dp461
g10
g11
sbag4
(g12
g6
F-74.47585285799407
tp462
Rp463
(dp464
g10
g16
sbaa(lp465
g4
(g5
g6
F40.66930940223179
tp466
Rp467
(dp468
g10
g11
sbag4
(g12
g6
F-74.47585297787441
tp469
Rp470
(dp471
g10
g16
sbaa(lp472
g4
(g5
g6
F40.66930956969841
tp473
Rp474
(dp475
g10
g11
sbag4
(g12
g6
F-74.4758529976965
tp476
Rp477
(dp478
g10
g16
sbaa(lp479
g4
(g5
g6
F40.66930964588518
tp480
Rp481
(dp482
g10
g11
sbag4
(g12
g6
F-74.47585311757685
tp483
Rp484
(dp485
g10
g16
sbaa(lp486
g4
(g5
g6
F40.66930972207194
tp487
Rp488
(dp489
g10
g11
sbag4
(g12
g6
F-74.47585323745719
tp490
Rp491
(dp492
g10
g16
sbaa(lp493
g4
(g5
g6
F40.66930979825869
tp494
Rp495
(dp496
g10
g11
sbag4
(g12
g6
F-74.47585335733753
tp497
Rp498
(dp499
g10
g16
sbaa(lp500
g4
(g5
g6
F40.66930978316557
tp501
Rp502
(dp503
g10
g11
sbag4
(g12
g6
F-74.47585357727611
tp504
Rp505
(dp506
g10
g16
sbaa(lp507
g4
(g5
g6
F40.66930976807246
tp508
Rp509
(dp510
g10
g11
sbag4
(g12
g6
F-74.4758537972147
tp511
Rp512
(dp513
g10
g16
sbaa(lp514
g4
(g5
g6
F40.669309752979345
tp515
Rp516
(dp517
g10
g11
sbag4
(g12
g6
F-74.4758540171533
tp518
Rp519
(dp520
g10
g16
sbaa(lp521
g4
(g5
g6
F40.66930973788624
tp522
Rp523
(dp524
g10
g11
sbag4
(g12
g6
F-74.47585423709188
tp525
Rp526
(dp527
g10
g16
sbaa(lp528
g4
(g5
g6
F40.66930972279312
tp529
Rp530
(dp531
g10
g11
sbag4
(g12
g6
F-74.47585445703047
tp532
Rp533
(dp534
g10
g16
sbaa(lp535
g4
(g5
g6
F40.669309631513244
tp536
Rp537
(dp538
g10
g11
sbag4
(g12
g6
F-74.47585455708871
tp539
Rp540
(dp541
g10
g16
sbaa(lp542
g4
(g5
g6
F40.66930954023338
tp543
Rp544
(dp545
g10
g11
sbag4
(g12
g6
F-74.47585465714695
tp546
Rp547
(dp548
g10
g16
sbaa(lp549
g4
(g5
g6
F40.66930952514027
tp550
Rp551
(dp552
g10
g11
sbag4
(g12
g6
F-74.47585487708554
tp553
Rp554
(dp555
g10
g16
sbaa(lp556
g4
(g5
g6
F40.66930960132702
tp557
Rp558
(dp559
g10
g11
sbag4
(g12
g6
F-74.47585499696588
tp560
Rp561
(dp562
g10
g16
sbaa(lp563
g4
(g5
g6
F40.66930967751377
tp564
Rp565
(dp566
g10
g11
sbag4
(g12
g6
F-74.47585511684622
tp567
Rp568
(dp569
g10
g16
sbaa(lp570
g4
(g5
g6
F40.669309753700524
tp571
Rp572
(dp573
g10
g11
sbag4
(g12
g6
F-74.47585523672657
tp574
Rp575
(dp576
g10
g16
sbaa(lp577
g4
(g5
g6
F40.66930973860742
tp578
Rp579
(dp580
g10
g11
sbag4
(g12
g6
F-74.47585545666516
tp581
Rp582
(dp583
g10
g16
sbaa(lp584
g4
(g5
g6
F40.66930981479416
tp585
Rp586
(dp587
g10
g11
sbag4
(g12
g6
F-74.4758555765455
tp588
Rp589
(dp590
g10
g16
sbaa(lp591
g4
(g5
g6
F40.66930989098093
tp592
Rp593
(dp594
g10
g11
sbag4
(g12
g6
F-74.47585569642584
tp595
Rp596
(dp597
g10
g16
sbaa(lp598
g4
(g5
g6
F40.66930996716767
tp599
Rp600
(dp601
g10
g11
sbag4
(g12
g6
F-74.47585581630618
tp602
Rp603
(dp604
g10
g16
sbaa(lp605
g4
(g5
g6
F40.669309952074556
tp606
Rp607
(dp608
g10
g11
sbag4
(g12
g6
F-74.47585603624476
tp609
Rp610
(dp611
g10
g16
sbaa(lp612
g4
(g5
g6
F40.66930993698144
tp613
Rp614
(dp615
g10
g11
sbag4
(g12
g6
F-74.47585625618335
tp616
Rp617
(dp618
g10
g16
sbaa(lp619
g4
(g5
g6
F40.66931001316819
tp620
Rp621
(dp622
g10
g11
sbag4
(g12
g6
F-74.47585637606369
tp623
Rp624
(dp625
g10
g16
sbaa(lp626
g4
(g5
g6
F40.66930999807507
tp627
Rp628
(dp629
g10
g11
sbag4
(g12
g6
F-74.47585659600229
tp630
Rp631
(dp632
g10
g16
sbaa(lp633
g4
(g5
g6
F40.66930998298196
tp634
Rp635
(dp636
g10
g11
sbag4
(g12
g6
F-74.47585681594087
tp637
Rp638
(dp639
g10
g16
sbaa(lp640
g4
(g5
g6
F40.66931005916871
tp641
Rp642
(dp643
g10
g11
sbag4
(g12
g6
F-74.47585693582121
tp644
Rp645
(dp646
g10
g16
sbaa(lp647
g4
(g5
g6
F40.669310044075594
tp648
Rp649
(dp650
g10
g11
sbag4
(g12
g6
F-74.4758571557598
tp651
Rp652
(dp653
g10
g16
sbaa(lp654
g4
(g5
g6
F40.669310028982466
tp655
Rp656
(dp657
g10
g11
sbag4
(g12
g6
F-74.47585737569838
tp658
Rp659
(dp660
g10
g16
sbaa(lp661
g4
(g5
g6
F40.66931001388935
tp662
Rp663
(dp664
g10
g11
sbag4
(g12
g6
F-74.47585759563697
tp665
Rp666
(dp667
g10
g16
sbaa(lp668
g4
(g5
g6
F40.66930992260947
tp669
Rp670
(dp671
g10
g11
sbag4
(g12
g6
F-74.47585769569521
tp672
Rp673
(dp674
g10
g16
sbaa(lp675
g4
(g5
g6
F40.66930990751636
tp676
Rp677
(dp678
g10
g11
sbag4
(g12
g6
F-74.4758579156338
tp679
Rp680
(dp681
g10
g16
sbaa(lp682
g4
(g5
g6
F40.66930981623648
tp683
Rp684
(dp685
g10
g11
sbag4
(g12
g6
F-74.47585801569204
tp686
Rp687
(dp688
g10
g16
sbaa(lp689
g4
(g5
g6
F40.669309801143356
tp690
Rp691
(dp692
g10
g11
sbag4
(g12
g6
F-74.47585823563062
tp693
Rp694
(dp695
g10
g16
sbaa(lp696
g4
(g5
g6
F40.669309877330114
tp697
Rp698
(dp699
g10
g11
sbag4
(g12
g6
F-74.47585835551098
tp700
Rp701
(dp702
g10
g16
sbaa(lp703
g4
(g5
g6
F40.66930995351686
tp704
Rp705
(dp706
g10
g11
sbag4
(g12
g6
F-74.47585847539132
tp707
Rp708
(dp709
g10
g16
sbaa(lp710
g4
(g5
g6
F40.66931002970361
tp711
Rp712
(dp713
g10
g11
sbag4
(g12
g6
F-74.47585859527166
tp714
Rp715
(dp716
g10
g16
sbaa(lp717
g4
(g5
g6
F40.669310014610495
tp718
Rp719
(dp720
g10
g11
sbag4
(g12
g6
F-74.47585881521024
tp721
Rp722
(dp723
g10
g16
sbaa(lp724
g4
(g5
g6
F40.66931009079725
tp725
Rp726
(dp727
g10
g11
sbag4
(g12
g6
F-74.4758589350906
tp728
Rp729
(dp730
g10
g16
sbaa(lp731
g4
(g5
g6
F40.66931007570412
tp732
Rp733
(dp734
g10
g11
sbag4
(g12
g6
F-74.47585915502918
tp735
Rp736
(dp737
g10
g16
sbaa(lp738
g4
(g5
g6
F40.669310060611
tp739
Rp740
(dp741
g10
g11
sbag4
(g12
g6
F-74.47585937496777
tp742
Rp743
(dp744
g10
g16
sbaa(lp745
g4
(g5
g6
F40.66931004551788
tp746
Rp747
(dp748
g10
g11
sbag4
(g12
g6
F-74.47585959490635
tp749
Rp750
(dp751
g10
g16
sbaa(lp752
g4
(g5
g6
F40.66931003042475
tp753
Rp754
(dp755
g10
g11
sbag4
(g12
g6
F-74.47585981484494
tp756
Rp757
(dp758
g10
g16
sbaa(lp759
g4
(g5
g6
F40.669310015331625
tp760
Rp761
(dp762
g10
g11
sbag4
(g12
g6
F-74.47586003478352
tp763
Rp764
(dp765
g10
g16
sbaa(lp766
g4
(g5
g6
F40.669310000238504
tp767
Rp768
(dp769
g10
g11
sbag4
(g12
g6
F-74.47586025472211
tp770
Rp771
(dp772
g10
g16
sbaa(lp773
g4
(g5
g6
F40.669310076425255
tp774
Rp775
(dp776
g10
g11
sbag4
(g12
g6
F-74.47586037460245
tp777
Rp778
(dp779
g10
g16
sbaa(lp780
g4
(g5
g6
F40.669310061332126
tp781
Rp782
(dp783
g10
g11
sbag4
(g12
g6
F-74.47586059454105
tp784
Rp785
(dp786
g10
g16
sbaa(lp787
g4
(g5
g6
F40.66931013751887
tp788
Rp789
(dp790
g10
g11
sbag4
(g12
g6
F-74.47586071442139
tp791
Rp792
(dp793
g10
g16
sbaa(lp794
g4
(g5
g6
F40.66931021370563
tp795
Rp796
(dp797
g10
g11
sbag4
(g12
g6
F-74.47586083430173
tp798
Rp799
(dp800
g10
g16
sbaa(lp801
g4
(g5
g6
F40.66931028989239
tp802
Rp803
(dp804
g10
g11
sbag4
(g12
g6
F-74.47586095418208
tp805
Rp806
(dp807
g10
g16
sbaa(lp808
g4
(g5
g6
F40.66931027479925
tp809
Rp810
(dp811
g10
g11
sbag4
(g12
g6
F-74.47586117412067
tp812
Rp813
(dp814
g10
g16
sbaa(lp815
g4
(g5
g6
F40.66931025970613
tp816
Rp817
(dp818
g10
g11
sbag4
(g12
g6
F-74.47586139405925
tp819
Rp820
(dp821
g10
g16
sbaa(lp822
g4
(g5
g6
F40.66931033589288
tp823
Rp824
(dp825
g10
g11
sbag4
(g12
g6
F-74.47586151393959
tp826
Rp827
(dp828
g10
g16
sbaa(lp829
g4
(g5
g6
F40.66931041207963
tp830
Rp831
(dp832
g10
g11
sbag4
(g12
g6
F-74.47586163381995
tp833
Rp834
(dp835
g10
g16
sbaa(lp836
g4
(g5
g6
F40.6693103969865
tp837
Rp838
(dp839
g10
g11
sbag4
(g12
g6
F-74.47586185375853
tp840
Rp841
(dp842
g10
g16
sbaa(lp843
g4
(g5
g6
F40.669310381893375
tp844
Rp845
(dp846
g10
g11
sbag4
(g12
g6
F-74.47586207369712
tp847
Rp848
(dp849
g10
g16
sbaa(lp850
g4
(g5
g6
F40.669310366800254
tp851
Rp852
(dp853
g10
g11
sbag4
(g12
g6
F-74.4758622936357
tp854
Rp855
(dp856
g10
g16
sbaa(lp857
g4
(g5
g6
F40.66931027552037
tp858
Rp859
(dp860
g10
g11
sbag4
(g12
g6
F-74.47586239369394
tp861
Rp862
(dp863
g10
g16
sbaa(lp864
g4
(g5
g6
F40.66931018424049
tp865
Rp866
(dp867
g10
g11
sbag4
(g12
g6
F-74.47586249375217
tp868
Rp869
(dp870
g10
g16
sbaa(lp871
g4
(g5
g6
F40.66931016914735
tp872
Rp873
(dp874
g10
g11
sbag4
(g12
g6
F-74.47586271369076
tp875
Rp876
(dp877
g10
g16
sbaa(lp878
g4
(g5
g6
F40.66931015405422
tp879
Rp880
(dp881
g10
g11
sbag4
(g12
g6
F-74.47586293362934
tp882
Rp883
(dp884
g10
g16
sbaa(lp885
g4
(g5
g6
F40.669310230240974
tp886
Rp887
(dp888
g10
g11
sbag4
(g12
g6
F-74.4758630535097
tp889
Rp890
(dp891
g10
g16
sbaa(lp892
g4
(g5
g6
F40.66931030642773
tp893
Rp894
(dp895
g10
g11
sbag4
(g12
g6
F-74.47586317339004
tp896
Rp897
(dp898
g10
g16
sbaa(lp899
g4
(g5
g6
F40.6693102913346
tp900
Rp901
(dp902
g10
g11
sbag4
(g12
g6
F-74.47586339332862
tp903
Rp904
(dp905
g10
g16
sbaa(lp906
g4
(g5
g6
F40.669310276241454
tp907
Rp908
(dp909
g10
g11
sbag4
(g12
g6
F-74.47586361326721
tp910
Rp911
(dp912
g10
g16
sbaa(lp913
g4
(g5
g6
F40.66931026114833
tp914
Rp915
(dp916
g10
g11
sbag4
(g12
g6
F-74.47586383320579
tp917
Rp918
(dp919
g10
g16
sbaa(lp920
g4
(g5
g6
F40.6693102460552
tp921
Rp922
(dp923
g10
g11
sbag4
(g12
g6
F-74.47586405314438
tp924
Rp925
(dp926
g10
g16
sbaa(lp927
g4
(g5
g6
F40.669310230962076
tp928
Rp929
(dp930
g10
g11
sbag4
(g12
g6
F-74.47586427308296
tp931
Rp932
(dp933
g10
g16
sbaa(lp934
g4
(g5
g6
F40.66931021586894
tp935
Rp936
(dp937
g10
g11
sbag4
(g12
g6
F-74.47586449302155
tp938
Rp939
(dp940
g10
g16
sbaa(lp941
g4
(g5
g6
F40.6693102007758
tp942
Rp943
(dp944
g10
g11
sbag4
(g12
g6
F-74.47586471296013
tp945
Rp946
(dp947
g10
g16
sbaa(lp948
g4
(g5
g6
F40.66931018568267
tp949
Rp950
(dp951
g10
g11
sbag4
(g12
g6
F-74.47586493289872
tp952
Rp953
(dp954
g10
g16
sbaa(lp955
g4
(g5
g6
F40.66931017058953
tp956
Rp957
(dp958
g10
g11
sbag4
(g12
g6
F-74.4758651528373
tp959
Rp960
(dp961
g10
g16
sbaa(lp962
g4
(g5
g6
F40.669310246776284
tp963
Rp964
(dp965
g10
g11
sbag4
(g12
g6
F-74.47586527271766
tp966
Rp967
(dp968
g10
g16
sbaa(lp969
g4
(g5
g6
F40.66931032296303
tp970
Rp971
(dp972
g10
g11
sbag4
(g12
g6
F-74.47586539259801
tp973
Rp974
(dp975
g10
g16
sbaa(lp976
g4
(g5
g6
F40.66931039914978
tp977
Rp978
(dp979
g10
g11
sbag4
(g12
g6
F-74.47586551247835
tp980
Rp981
(dp982
g10
g16
sbaa(lp983
g4
(g5
g6
F40.66931038405665
tp984
Rp985
(dp986
g10
g11
sbag4
(g12
g6
F-74.47586573241693
tp987
Rp988
(dp989
g10
g16
sbaa(lp990
g4
(g5
g6
F40.669310460243395
tp991
Rp992
(dp993
g10
g11
sbag4
(g12
g6
F-74.47586585229729
tp994
Rp995
(dp996
g10
g16
sbaa(lp997
g4
(g5
g6
F40.66931044515025
tp998
Rp999
(dp1000
g10
g11
sbag4
(g12
g6
F-74.47586607223587
tp1001
Rp1002
(dp1003
g10
g16
sbaa(lp1004
g4
(g5
g6
F40.66931052133701
tp1005
Rp1006
(dp1007
g10
g11
sbag4
(g12
g6
F-74.47586619211621
tp1008
Rp1009
(dp1010
g10
g16
sbaa(lp1011
g4
(g5
g6
F40.66931059752376
tp1012
Rp1013
(dp1014
g10
g11
sbag4
(g12
g6
F-74.47586631199657
tp1015
Rp1016
(dp1017
g10
g16
sbaa(lp1018
g4
(g5
g6
F40.669310673710505
tp1019
Rp1020
(dp1021
g10
g11
sbag4
(g12
g6
F-74.47586643187691
tp1022
Rp1023
(dp1024
g10
g16
sbaa(lp1025
g4
(g5
g6
F40.669310749897264
tp1026
Rp1027
(dp1028
g10
g11
sbag4
(g12
g6
F-74.47586655175726
tp1029
Rp1030
(dp1031
g10
g16
sbaa(lp1032
g4
(g5
g6
F40.66931073480413
tp1033
Rp1034
(dp1035
g10
g11
sbag4
(g12
g6
F-74.47586677169585
tp1036
Rp1037
(dp1038
g10
g16
sbaa(lp1039
g4
(g5
g6
F40.66931090227075
tp1040
Rp1041
(dp1042
g10
g11
sbag4
(g12
g6
F-74.47586679151796
tp1043
Rp1044
(dp1045
g10
g16
sbaa(lp1046
g4
(g5
g6
F40.6693109784575
tp1047
Rp1048
(dp1049
g10
g11
sbag4
(g12
g6
F-74.47586691139831
tp1050
Rp1051
(dp1052
g10
g16
sbaa(lp1053
g4
(g5
g6
F40.66931105464426
tp1054
Rp1055
(dp1056
g10
g11
sbag4
(g12
g6
F-74.47586703127865
tp1057
Rp1058
(dp1059
g10
g16
sbaa(lp1060
g4
(g5
g6
F40.669311130831005
tp1061
Rp1062
(dp1063
g10
g11
sbag4
(g12
g6
F-74.47586715115901
tp1064
Rp1065
(dp1066
g10
g16
sbaa(lp1067
g4
(g5
g6
F40.66931120701775
tp1068
Rp1069
(dp1070
g10
g11
sbag4
(g12
g6
F-74.47586727103936
tp1071
Rp1072
(dp1073
g10
g16
sbaa(lp1074
g4
(g5
g6
F40.66931128320451
tp1075
Rp1076
(dp1077
g10
g11
sbag4
(g12
g6
F-74.4758673909197
tp1078
Rp1079
(dp1080
g10
g16
sbaa(lp1081
g4
(g5
g6
F40.66931135939125
tp1082
Rp1083
(dp1084
g10
g11
sbag4
(g12
g6
F-74.47586751080006
tp1085
Rp1086
(dp1087
g10
g16
sbaa(lp1088
g4
(g5
g6
F40.669311435578
tp1089
Rp1090
(dp1091
g10
g11
sbag4
(g12
g6
F-74.47586763068041
tp1092
Rp1093
(dp1094
g10
g16
sbaa(lp1095
g4
(g5
g6
F40.66931151176477
tp1096
Rp1097
(dp1098
g10
g11
sbag4
(g12
g6
F-74.47586775056075
tp1099
Rp1100
(dp1101
g10
g16
sbaa(lp1102
g4
(g5
g6
F40.66931149667162
tp1103
Rp1104
(dp1105
g10
g11
sbag4
(g12
g6
F-74.47586797049934
tp1106
Rp1107
(dp1108
g10
g16
sbaa(lp1109
g4
(g5
g6
F40.669311481578475
tp1110
Rp1111
(dp1112
g10
g11
sbag4
(g12
g6
F-74.47586819043794
tp1113
Rp1114
(dp1115
g10
g16
sbaa(lp1116
g4
(g5
g6
F40.66931146648534
tp1117
Rp1118
(dp1119
g10
g11
sbag4
(g12
g6
F-74.47586841037652
tp1120
Rp1121
(dp1122
g10
g16
sbaa(lp1123
g4
(g5
g6
F40.66931137520545
tp1124
Rp1125
(dp1126
g10
g11
sbag4
(g12
g6
F-74.47586851043475
tp1127
Rp1128
(dp1129
g10
g16
sbaa(lp1130
g4
(g5
g6
F40.66931136011232
tp1131
Rp1132
(dp1133
g10
g11
sbag4
(g12
g6
F-74.47586873037334
tp1134
Rp1135
(dp1136
g10
g16
sbaa(lp1137
g4
(g5
g6
F40.66931143629906
tp1138
Rp1139
(dp1140
g10
g11
sbag4
(g12
g6
F-74.47586885025369
tp1141
Rp1142
(dp1143
g10
g16
sbaa(lp1144
g4
(g5
g6
F40.66931151248581
tp1145
Rp1146
(dp1147
g10
g11
sbag4
(g12
g6
F-74.47586897013404
tp1148
Rp1149
(dp1150
g10
g16
sbaa(lp1151
g4
(g5
g6
F40.66931149739267
tp1152
Rp1153
(dp1154
g10
g11
sbag4
(g12
g6
F-74.47586919007263
tp1155
Rp1156
(dp1157
g10
g16
sbaa(lp1158
g4
(g5
g6
F40.66931157357943
tp1159
Rp1160
(dp1161
g10
g11
sbag4
(g12
g6
F-74.47586930995298
tp1162
Rp1163
(dp1164
g10
g16
sbaa(lp1165
g4
(g5
g6
F40.66931164976617
tp1166
Rp1167
(dp1168
g10
g11
sbag4
(g12
g6
F-74.47586942983332
tp1169
Rp1170
(dp1171
g10
g16
sbaa(lp1172
g4
(g5
g6
F40.669311725952916
tp1173
Rp1174
(dp1175
g10
g11
sbag4
(g12
g6
F-74.47586954971368
tp1176
Rp1177
(dp1178
g10
g16
sbaa(lp1179
g4
(g5
g6
F40.66931171085979
tp1180
Rp1181
(dp1182
g10
g11
sbag4
(g12
g6
F-74.47586976965226
tp1183
Rp1184
(dp1185
g10
g16
sbaa(lp1186
g4
(g5
g6
F40.66931169576663
tp1187
Rp1188
(dp1189
g10
g11
sbag4
(g12
g6
F-74.47586998959085
tp1190
Rp1191
(dp1192
g10
g16
sbaa(lp1193
g4
(g5
g6
F40.66931160448675
tp1194
Rp1195
(dp1196
g10
g11
sbag4
(g12
g6
F-74.47587008964909
tp1197
Rp1198
(dp1199
g10
g16
sbaa(lp1200
g4
(g5
g6
F40.669311437020106
tp1201
Rp1202
(dp1203
g10
g11
sbag4
(g12
g6
F-74.47587006982697
tp1204
Rp1205
(dp1206
g10
g16
sbaa(lp1207
g4
(g5
g6
F40.669311269553475
tp1208
Rp1209
(dp1210
g10
g11
sbag4
(g12
g6
F-74.47587005000486
tp1211
Rp1212
(dp1213
g10
g16
sbaa(lp1214
g4
(g5
g6
F40.66931110208682
tp1215
Rp1216
(dp1217
g10
g11
sbag4
(g12
g6
F-74.47587003018273
tp1218
Rp1219
(dp1220
g10
g16
sbaa(lp1221
g4
(g5
g6
F40.66931101080694
tp1222
Rp1223
(dp1224
g10
g11
sbag4
(g12
g6
F-74.47587013024098
tp1225
Rp1226
(dp1227
g10
g16
sbaa(lp1228
g4
(g5
g6
F40.6693109957138
tp1229
Rp1230
(dp1231
g10
g11
sbag4
(g12
g6
F-74.47587035017956
tp1232
Rp1233
(dp1234
g10
g16
sbaa(lp1235
g4
(g5
g6
F40.66931090443391
tp1236
Rp1237
(dp1238
g10
g11
sbag4
(g12
g6
F-74.47587045023779
tp1239
Rp1240
(dp1241
g10
g16
sbaa(lp1242
g4
(g5
g6
F40.66931081315402
tp1243
Rp1244
(dp1245
g10
g11
sbag4
(g12
g6
F-74.47587055029602
tp1246
Rp1247
(dp1248
g10
g16
sbaa(lp1249
g4
(g5
g6
F40.66931079806087
tp1250
Rp1251
(dp1252
g10
g11
sbag4
(g12
g6
F-74.47587077023461
tp1253
Rp1254
(dp1255
g10
g16
sbaa(lp1256
g4
(g5
g6
F40.66931087424762
tp1257
Rp1258
(dp1259
g10
g11
sbag4
(g12
g6
F-74.47587089011496
tp1260
Rp1261
(dp1262
g10
g16
sbaa(lp1263
g4
(g5
g6
F40.669310950434365
tp1264
Rp1265
(dp1266
g10
g11
sbag4
(g12
g6
F-74.47587100999532
tp1267
Rp1268
(dp1269
g10
g16
sbaa(lp1270
g4
(g5
g6
F40.66931093534122
tp1271
Rp1272
(dp1273
g10
g11
sbag4
(g12
g6
F-74.4758712299339
tp1274
Rp1275
(dp1276
g10
g16
sbaa(lp1277
g4
(g5
g6
F40.66931092024807
tp1278
Rp1279
(dp1280
g10
g11
sbag4
(g12
g6
F-74.47587144987249
tp1281
Rp1282
(dp1283
g10
g16
sbaa(lp1284
g4
(g5
g6
F40.66931090515493
tp1285
Rp1286
(dp1287
g10
g11
sbag4
(g12
g6
F-74.47587166981107
tp1288
Rp1289
(dp1290
g10
g16
sbaa(lp1291
g4
(g5
g6
F40.669310890061794
tp1292
Rp1293
(dp1294
g10
g11
sbag4
(g12
g6
F-74.47587188974964
tp1295
Rp1296
(dp1297
g10
g16
sbaa(lp1298
g4
(g5
g6
F40.6693107987819
tp1299
Rp1300
(dp1301
g10
g11
sbag4
(g12
g6
F-74.47587198980789
tp1302
Rp1303
(dp1304
g10
g16
sbaa(lp1305
g4
(g5
g6
F40.66931078368876
tp1306
Rp1307
(dp1308
g10
g11
sbag4
(g12
g6
F-74.47587220974646
tp1309
Rp1310
(dp1311
g10
g16
sbaa(lp1312
g4
(g5
g6
F40.66931076859561
tp1313
Rp1314
(dp1315
g10
g11
sbag4
(g12
g6
F-74.47587242968504
tp1316
Rp1317
(dp1318
g10
g16
sbaa(lp1319
g4
(g5
g6
F40.66931067731572
tp1320
Rp1321
(dp1322
g10
g11
sbag4
(g12
g6
F-74.47587252974327
tp1323
Rp1324
(dp1325
g10
g16
sbaa(lp1326
g4
(g5
g6
F40.66931058603582
tp1327
Rp1328
(dp1329
g10
g11
sbag4
(g12
g6
F-74.4758726298015
tp1330
Rp1331
(dp1332
g10
g16
sbaa(lp1333
g4
(g5
g6
F40.669310494755926
tp1334
Rp1335
(dp1336
g10
g11
sbag4
(g12
g6
F-74.47587272985973
tp1337
Rp1338
(dp1339
g10
g16
sbaa(lp1340
g4
(g5
g6
F40.66931040347604
tp1341
Rp1342
(dp1343
g10
g11
sbag4
(g12
g6
F-74.47587282991796
tp1344
Rp1345
(dp1346
g10
g16
sbaa(lp1347
g4
(g5
g6
F40.669310312196146
tp1348
Rp1349
(dp1350
g10
g11
sbag4
(g12
g6
F-74.47587292997619
tp1351
Rp1352
(dp1353
g10
g16
sbaa(lp1354
g4
(g5
g6
F40.66931014472951
tp1355
Rp1356
(dp1357
g10
g11
sbag4
(g12
g6
F-74.47587291015407
tp1358
Rp1359
(dp1360
g10
g16
sbaa(lp1361
g4
(g5
g6
F40.66930997726287
tp1362
Rp1363
(dp1364
g10
g11
sbag4
(g12
g6
F-74.47587289033194
tp1365
Rp1366
(dp1367
g10
g16
sbaa(lp1368
g4
(g5
g6
F40.66930980979624
tp1369
Rp1370
(dp1371
g10
g11
sbag4
(g12
g6
F-74.47587287050982
tp1372
Rp1373
(dp1374
g10
g16
sbaa(lp1375
g4
(g5
g6
F40.66930971851634
tp1376
Rp1377
(dp1378
g10
g11
sbag4
(g12
g6
F-74.47587297056805
tp1379
Rp1380
(dp1381
g10
g16
sbaa(lp1382
g4
(g5
g6
F40.66930962723645
tp1383
Rp1384
(dp1385
g10
g11
sbag4
(g12
g6
F-74.47587307062626
tp1386
Rp1387
(dp1388
g10
g16
sbaa(lp1389
g4
(g5
g6
F40.66930953595656
tp1390
Rp1391
(dp1392
g10
g11
sbag4
(g12
g6
F-74.4758731706845
tp1393
Rp1394
(dp1395
g10
g16
sbaa(lp1396
g4
(g5
g6
F40.66930944467667
tp1397
Rp1398
(dp1399
g10
g11
sbag4
(g12
g6
F-74.47587327074272
tp1400
Rp1401
(dp1402
g10
g16
sbaa(lp1403
g4
(g5
g6
F40.66930927721004
tp1404
Rp1405
(dp1406
g10
g11
sbag4
(g12
g6
F-74.4758732509206
tp1407
Rp1408
(dp1409
g10
g16
sbaa(lp1410
g4
(g5
g6
F40.66930920102329
tp1411
Rp1412
(dp1413
g10
g11
sbag4
(g12
g6
F-74.47587313104025
tp1414
Rp1415
(dp1416
g10
g16
sbaa(lp1417
g4
(g5
g6
F40.66930903355665
tp1418
Rp1419
(dp1420
g10
g11
sbag4
(g12
g6
F-74.4758731112181
tp1421
Rp1422
(dp1423
g10
g16
sbaa(lp1424
g4
(g5
g6
F40.66930886609003
tp1425
Rp1426
(dp1427
g10
g11
sbag4
(g12
g6
F-74.47587309139598
tp1428
Rp1429
(dp1430
g10
g16
sbaa(lp1431
g4
(g5
g6
F40.66930877481014
tp1432
Rp1433
(dp1434
g10
g11
sbag4
(g12
g6
F-74.4758731914542
tp1435
Rp1436
(dp1437
g10
g16
sbaa(lp1438
g4
(g5
g6
F40.669308759716984
tp1439
Rp1440
(dp1441
g10
g11
sbag4
(g12
g6
F-74.47587341139278
tp1442
Rp1443
(dp1444
g10
g16
sbaa(lp1445
g4
(g5
g6
F40.6693086684371
tp1446
Rp1447
(dp1448
g10
g11
sbag4
(g12
g6
F-74.47587351145101
tp1449
Rp1450
(dp1451
g10
g16
sbaa(lp1452
g4
(g5
g6
F40.66930857715721
tp1453
Rp1454
(dp1455
g10
g11
sbag4
(g12
g6
F-74.47587361150923
tp1456
Rp1457
(dp1458
g10
g16
sbaa(lp1459
g4
(g5
g6
F40.669308485877316
tp1460
Rp1461
(dp1462
g10
g11
sbag4
(g12
g6
F-74.47587371156744
tp1463
Rp1464
(dp1465
g10
g16
sbaa(lp1466
g4
(g5
g6
F40.66930839459743
tp1467
Rp1468
(dp1469
g10
g11
sbag4
(g12
g6
F-74.47587381162568
tp1470
Rp1471
(dp1472
g10
g16
sbaa(lp1473
g4
(g5
g6
F40.6693082271308
tp1474
Rp1475
(dp1476
g10
g11
sbag4
(g12
g6
F-74.47587379180354
tp1477
Rp1478
(dp1479
g10
g16
sbaa(lp1480
g4
(g5
g6
F40.66930821203765
tp1481
Rp1482
(dp1483
g10
g11
sbag4
(g12
g6
F-74.47587401174212
tp1484
Rp1485
(dp1486
g10
g16
sbaa(lp1487
g4
(g5
g6
F40.66930812075775
tp1488
Rp1489
(dp1490
g10
g11
sbag4
(g12
g6
F-74.47587411180034
tp1491
Rp1492
(dp1493
g10
g16
sbaa(lp1494
g4
(g5
g6
F40.66930802947786
tp1495
Rp1496
(dp1497
g10
g11
sbag4
(g12
g6
F-74.47587421185855
tp1498
Rp1499
(dp1500
g10
g16
sbaa(lp1501
g4
(g5
g6
F40.66930801438471
tp1502
Rp1503
(dp1504
g10
g11
sbag4
(g12
g6
F-74.47587443179714
tp1505
Rp1506
(dp1507
g10
g16
sbaa(lp1508
g4
(g5
g6
F40.66930799929156
tp1509
Rp1510
(dp1511
g10
g11
sbag4
(g12
g6
F-74.47587465173571
tp1512
Rp1513
(dp1514
g10
g16
sbaa(lp1515
g4
(g5
g6
F40.669307908011675
tp1516
Rp1517
(dp1518
g10
g11
sbag4
(g12
g6
F-74.47587475179392
tp1519
Rp1520
(dp1521
g10
g16
sbaas.